
test.elf:     file format elf32-littlenios2
test.elf
architecture: nios2:r1, flags 0x00000112:
EXEC_P, HAS_SYMS, D_PAGED
start address 0x000001bc

Program Header:
    LOAD off    0x00001020 vaddr 0x00000020 paddr 0x00000020 align 2**12
         filesz 0x00014518 memsz 0x00014674 flags rwx
    LOAD off    0x00016000 vaddr 0x02009000 paddr 0x02009000 align 2**12
         filesz 0x00000000 memsz 0x00000000 flags r-x

Sections:
Idx Name          Size      VMA       LMA       File off  Algn
  0 .entry        00000000  02009000  02009000  00016000  2**5
                  CONTENTS, ALLOC, LOAD, READONLY, CODE
  1 .exceptions   0000019c  00000020  00000020  00001020  2**2
                  CONTENTS, ALLOC, LOAD, READONLY, CODE
  2 .text         00011fe0  000001bc  000001bc  000011bc  2**2
                  CONTENTS, ALLOC, LOAD, READONLY, CODE
  3 .rodata       00000408  0001219c  0001219c  0001319c  2**2
                  CONTENTS, ALLOC, LOAD, READONLY, DATA
  4 .rwdata       00001f94  000125a4  000125a4  000135a4  2**2
                  CONTENTS, ALLOC, LOAD, DATA, SMALL_DATA
  5 .bss          0000015c  00014538  00014538  00015538  2**2
                  ALLOC, SMALL_DATA
  6 .sdram        00000000  00014694  00014694  00016000  2**0
                  CONTENTS
  7 .onchip_memory2_0 00000000  02004000  02004000  00016000  2**0
                  CONTENTS
  8 .epcs_flash_controller_0 00000000  02009020  02009020  00016000  2**0
                  CONTENTS
  9 .comment      00000023  00000000  00000000  00016000  2**0
                  CONTENTS, READONLY
 10 .debug_aranges 00001058  00000000  00000000  00016028  2**3
                  CONTENTS, READONLY, DEBUGGING
 11 .debug_info   0002651b  00000000  00000000  00017080  2**0
                  CONTENTS, READONLY, DEBUGGING
 12 .debug_abbrev 00009f22  00000000  00000000  0003d59b  2**0
                  CONTENTS, READONLY, DEBUGGING
 13 .debug_line   0000c28d  00000000  00000000  000474bd  2**0
                  CONTENTS, READONLY, DEBUGGING
 14 .debug_frame  00002854  00000000  00000000  0005374c  2**2
                  CONTENTS, READONLY, DEBUGGING
 15 .debug_str    00003bac  00000000  00000000  00055fa0  2**0
                  CONTENTS, READONLY, DEBUGGING
 16 .debug_loc    0001769d  00000000  00000000  00059b4c  2**0
                  CONTENTS, READONLY, DEBUGGING
 17 .debug_alt_sim_info 00000010  00000000  00000000  000711ec  2**2
                  CONTENTS, READONLY, DEBUGGING
 18 .debug_ranges 000018a8  00000000  00000000  00071200  2**3
                  CONTENTS, READONLY, DEBUGGING
 19 .thread_model 00000003  00000000  00000000  000763b2  2**0
                  CONTENTS, READONLY
 20 .cpu          0000000c  00000000  00000000  000763b5  2**0
                  CONTENTS, READONLY
 21 .qsys         00000001  00000000  00000000  000763c1  2**0
                  CONTENTS, READONLY
 22 .simulation_enabled 00000001  00000000  00000000  000763c2  2**0
                  CONTENTS, READONLY
 23 .stderr_dev   0000000b  00000000  00000000  000763c3  2**0
                  CONTENTS, READONLY
 24 .stdin_dev    0000000b  00000000  00000000  000763ce  2**0
                  CONTENTS, READONLY
 25 .stdout_dev   0000000b  00000000  00000000  000763d9  2**0
                  CONTENTS, READONLY
 26 .sopc_system_name 00000008  00000000  00000000  000763e4  2**0
                  CONTENTS, READONLY
 27 .quartus_project_dir 00000037  00000000  00000000  000763ec  2**0
                  CONTENTS, READONLY
 28 .sopcinfo     000e0f1e  00000000  00000000  00076423  2**0
                  CONTENTS, READONLY
SYMBOL TABLE:
02009000 l    d  .entry	00000000 .entry
00000020 l    d  .exceptions	00000000 .exceptions
000001bc l    d  .text	00000000 .text
0001219c l    d  .rodata	00000000 .rodata
000125a4 l    d  .rwdata	00000000 .rwdata
00014538 l    d  .bss	00000000 .bss
00014694 l    d  .sdram	00000000 .sdram
02004000 l    d  .onchip_memory2_0	00000000 .onchip_memory2_0
02009020 l    d  .epcs_flash_controller_0	00000000 .epcs_flash_controller_0
00000000 l    d  .comment	00000000 .comment
00000000 l    d  .debug_aranges	00000000 .debug_aranges
00000000 l    d  .debug_info	00000000 .debug_info
00000000 l    d  .debug_abbrev	00000000 .debug_abbrev
00000000 l    d  .debug_line	00000000 .debug_line
00000000 l    d  .debug_frame	00000000 .debug_frame
00000000 l    d  .debug_str	00000000 .debug_str
00000000 l    d  .debug_loc	00000000 .debug_loc
00000000 l    d  .debug_alt_sim_info	00000000 .debug_alt_sim_info
00000000 l    d  .debug_ranges	00000000 .debug_ranges
00000000 l    df *ABS*	00000000 ../test_bsp//obj/HAL/src/crt0.o
000001f0 l       .text	00000000 alt_after_alt_main
00000000 l    df *ABS*	00000000 alt_exception_entry.o
00000094 l       .exceptions	00000000 alt_exception_unknown
00000000 l    df *ABS*	00000000 alt_irq_handler.c
00000000 l    df *ABS*	00000000 hello_world.c
00000000 l    df *ABS*	00000000 main.c
00000000 l    df *ABS*	00000000 motor_setting.c
00000000 l    df *ABS*	00000000 pin_tests.c
00000000 l    df *ABS*	00000000 steering_setting.c
00000000 l    df *ABS*	00000000 uart.c
00000000 l    df *ABS*	00000000 ultrasound.c
00000000 l    df *ABS*	00000000 lib2-mul.c
00000000 l    df *ABS*	00000000 divsf3.c
00000000 l    df *ABS*	00000000 floatunsisf.c
00000000 l    df *ABS*	00000000 extendsfdf2.c
00000000 l    df *ABS*	00000000 libgcc2.c
00000000 l    df *ABS*	00000000 libgcc2.c
00000000 l    df *ABS*	00000000 printf.c
00000000 l    df *ABS*	00000000 puts.c
00000000 l    df *ABS*	00000000 strlen.c
00000000 l    df *ABS*	00000000 vfprintf.c
0001235e l     O .rodata	00000010 zeroes.4255
000036f8 l     F .text	000000bc __sbprintf
0001236e l     O .rodata	00000010 blanks.4254
00000000 l    df *ABS*	00000000 wsetup.c
00000000 l    df *ABS*	00000000 dtoa.c
00003908 l     F .text	00000228 quorem
00000000 l    df *ABS*	00000000 fflush.c
00000000 l    df *ABS*	00000000 findfp.c
000054ec l     F .text	00000008 __fp_lock
000054f4 l     F .text	00000008 __fp_unlock
00005508 l     F .text	0000019c __sinit.part.1
00000000 l    df *ABS*	00000000 mallocr.c
00000000 l    df *ABS*	00000000 fvwrite.c
00000000 l    df *ABS*	00000000 fwalk.c
00000000 l    df *ABS*	00000000 impure.c
000125a4 l     O .rwdata	00000424 impure_data
00000000 l    df *ABS*	00000000 locale.c
000129e8 l     O .rwdata	00000020 lc_ctype_charset
000129c8 l     O .rwdata	00000020 lc_message_charset
00012a08 l     O .rwdata	00000038 lconv
00000000 l    df *ABS*	00000000 makebuf.c
00000000 l    df *ABS*	00000000 mallocr.c
00000000 l    df *ABS*	00000000 memchr.c
00000000 l    df *ABS*	00000000 memcpy.c
00000000 l    df *ABS*	00000000 memmove.c
00000000 l    df *ABS*	00000000 memset.c
00000000 l    df *ABS*	00000000 mprec.c
000123a0 l     O .rodata	0000000c p05.2710
00000000 l    df *ABS*	00000000 mallocr.c
00000000 l    df *ABS*	00000000 s_fpclassify.c
00000000 l    df *ABS*	00000000 sbrkr.c
00000000 l    df *ABS*	00000000 stdio.c
00000000 l    df *ABS*	00000000 strcmp.c
00000000 l    df *ABS*	00000000 vfprintf.c
00008a50 l     F .text	000000fc __sprint_r.part.0
000124c4 l     O .rodata	00000010 zeroes.4200
000124d4 l     O .rodata	00000010 blanks.4199
00009e78 l     F .text	000000bc __sbprintf
00000000 l    df *ABS*	00000000 writer.c
00000000 l    df *ABS*	00000000 closer.c
00000000 l    df *ABS*	00000000 mallocr.c
00000000 l    df *ABS*	00000000 fclose.c
00000000 l    df *ABS*	00000000 fputwc.c
00000000 l    df *ABS*	00000000 fstatr.c
00000000 l    df *ABS*	00000000 int_errno.c
00000000 l    df *ABS*	00000000 isattyr.c
00000000 l    df *ABS*	00000000 lseekr.c
00000000 l    df *ABS*	00000000 readr.c
00000000 l    df *ABS*	00000000 wbuf.c
00000000 l    df *ABS*	00000000 wcrtomb.c
00000000 l    df *ABS*	00000000 wctomb_r.c
00000000 l    df *ABS*	00000000 libgcc2.c
00000000 l    df *ABS*	00000000 libgcc2.c
00000000 l    df *ABS*	00000000 lib2-divmod.c
0000b49c l     F .text	0000006c udivmodsi4
00000000 l    df *ABS*	00000000 adddf3.c
00000000 l    df *ABS*	00000000 divdf3.c
00000000 l    df *ABS*	00000000 eqdf2.c
00000000 l    df *ABS*	00000000 gedf2.c
00000000 l    df *ABS*	00000000 ledf2.c
00000000 l    df *ABS*	00000000 muldf3.c
00000000 l    df *ABS*	00000000 subdf3.c
00000000 l    df *ABS*	00000000 fixdfsi.c
00000000 l    df *ABS*	00000000 floatsidf.c
00000000 l    df *ABS*	00000000 floatunsidf.c
00000000 l    df *ABS*	00000000 alt_close.c
0000dd60 l     F .text	00000050 alt_get_errno
00000000 l    df *ABS*	00000000 alt_dev.c
0000de88 l     F .text	0000002c alt_dev_null_write
00000000 l    df *ABS*	00000000 alt_errno.c
00000000 l    df *ABS*	00000000 alt_fstat.c
0000deb4 l     F .text	00000050 alt_get_errno
00000000 l    df *ABS*	00000000 alt_isatty.c
0000dfbc l     F .text	00000050 alt_get_errno
00000000 l    df *ABS*	00000000 alt_lseek.c
0000e0b8 l     F .text	00000050 alt_get_errno
00000000 l    df *ABS*	00000000 alt_main.c
00000000 l    df *ABS*	00000000 alt_malloc_lock.c
00000000 l    df *ABS*	00000000 alt_read.c
0000e29c l     F .text	00000050 alt_get_errno
00000000 l    df *ABS*	00000000 alt_release_fd.c
00000000 l    df *ABS*	00000000 alt_sbrk.c
00014520 l     O .rwdata	00000004 heap_end
00000000 l    df *ABS*	00000000 alt_write.c
0000e520 l     F .text	00000050 alt_get_errno
00000000 l    df *ABS*	00000000 alt_sys_init.c
0000e670 l     F .text	00000038 alt_dev_reg
00012ff0 l     O .rwdata	000000cc epcs_flash_controller_0
000130bc l     O .rwdata	00001060 jtag_uart_0
0001411c l     O .rwdata	000000c4 New_UltraSound0
000141e0 l     O .rwdata	000000c4 New_UltraSound1
000142a4 l     O .rwdata	000000c4 New_UltraSound2
00014368 l     O .rwdata	000000c4 New_UltraSound3
0001442c l     O .rwdata	000000c4 uart_0
00000000 l    df *ABS*	00000000 altera_avalon_epcs_flash_controller.c
0000e7f4 l     F .text	00000038 alt_flash_device_register
0000e880 l     F .text	000003f8 alt_epcs_flash_query
0000ec78 l     F .text	000000e8 alt_epcs_flash_memcmp
0000f04c l     F .text	00000094 alt_epcs_test_address
00000000 l    df *ABS*	00000000 altera_avalon_jtag_uart_fd.c
00000000 l    df *ABS*	00000000 altera_avalon_jtag_uart_init.c
0000f514 l     F .text	00000204 altera_avalon_jtag_uart_irq
0000f718 l     F .text	000000a8 altera_avalon_jtag_uart_timeout
00000000 l    df *ABS*	00000000 altera_avalon_jtag_uart_ioctl.c
00000000 l    df *ABS*	00000000 altera_avalon_jtag_uart_read.c
00000000 l    df *ABS*	00000000 altera_avalon_jtag_uart_write.c
00000000 l    df *ABS*	00000000 altera_avalon_timer_sc.c
0000fd38 l     F .text	00000074 alt_avalon_timer_sc_irq
00000000 l    df *ABS*	00000000 altera_avalon_uart_fd.c
00000000 l    df *ABS*	00000000 altera_avalon_uart_init.c
0000ffec l     F .text	00000098 altera_avalon_uart_irq
00010084 l     F .text	000000e0 altera_avalon_uart_rxirq
00010164 l     F .text	00000144 altera_avalon_uart_txirq
00000000 l    df *ABS*	00000000 altera_avalon_uart_read.c
000102fc l     F .text	00000050 alt_get_errno
00000000 l    df *ABS*	00000000 altera_avalon_uart_write.c
00010528 l     F .text	00000050 alt_get_errno
00000000 l    df *ABS*	00000000 epcs_commands.c
00010780 l     F .text	00000038 epcs_test_wip
000107b8 l     F .text	00000038 epcs_await_wip_released
00000000 l    df *ABS*	00000000 alt_alarm_start.c
00000000 l    df *ABS*	00000000 alt_dev_llist_insert.c
00010e90 l     F .text	00000050 alt_get_errno
00000000 l    df *ABS*	00000000 alt_do_ctors.c
00000000 l    df *ABS*	00000000 alt_do_dtors.c
00000000 l    df *ABS*	00000000 alt_flash_dev.c
00000000 l    df *ABS*	00000000 alt_iic.c
00000000 l    df *ABS*	00000000 alt_iic_isr_register.c
00000000 l    df *ABS*	00000000 alt_io_redirect.c
000113c4 l     F .text	000000e0 alt_open_fd
00000000 l    df *ABS*	00000000 alt_irq_vars.c
00000000 l    df *ABS*	00000000 alt_open.c
0001151c l     F .text	00000050 alt_get_errno
0001156c l     F .text	000000f4 alt_file_locked
00000000 l    df *ABS*	00000000 alt_tick.c
00000000 l    df *ABS*	00000000 altera_nios2_qsys_irq.c
00000000 l    df *ABS*	00000000 altera_avalon_spi.c
00000000 l    df *ABS*	00000000 alt_find_dev.c
00000000 l    df *ABS*	00000000 alt_find_file.c
00000000 l    df *ABS*	00000000 alt_get_fd.c
00000000 l    df *ABS*	00000000 atexit.c
00000000 l    df *ABS*	00000000 exit.c
00000000 l    df *ABS*	00000000 memcmp.c
00000000 l    df *ABS*	00000000 __atexit.c
00000000 l    df *ABS*	00000000 __call_atexit.c
00000000 l    df *ABS*	00000000 alt_exit.c
000080c8 g     F .text	00000074 _mprec_log10
0000efc0 g     F .text	0000008c alt_epcs_flash_get_info
000081b4 g     F .text	0000008c __any_on
0000a3f8 g     F .text	00000054 _isatty_r
000123ac g     O .rodata	00000028 __mprec_tinytens
0000e1e4 g     F .text	00000078 alt_main
00001528 g     F .text	000000a8 _puts_r
00014594 g     O .bss	00000100 alt_irq
0000a44c g     F .text	0000005c _lseek_r
0000c7e4 g     F .text	00000084 .hidden __eqdf2
00014694 g       *ABS*	00000000 __alt_heap_start
000014ec g     F .text	0000003c printf
0000a658 g     F .text	0000009c _wcrtomb_r
00008948 g     F .text	0000005c __sseek
0000584c g     F .text	00000010 __sinit
0000a504 g     F .text	00000138 __swbuf_r
00006304 g     F .text	0000007c _setlocale_r
000056a4 g     F .text	00000078 __sfmoreglue
0000e27c g     F .text	00000020 __malloc_unlock
00000dec g     F .text	00000450 .hidden __divsf3
00000cdc g     F .text	00000034 ultrasound_init
00006f64 g     F .text	0000015c memmove
00005834 g     F .text	00000018 _cleanup
000071e4 g     F .text	000000a8 _Balloc
0000c868 g     F .text	000000e0 .hidden __gtdf2
00000000  w      *UND*	00000000 __errno
000107f0 g     F .text	000000f8 epcs_sector_erase
02009000 g     F .entry	00000000 __reset
0000076c g     F .text	000001e4 test_motor
0000a3a0 g     F .text	00000058 _fstat_r
00014550 g     O .bss	00000004 errno
000088c4 g     F .text	00000008 __seofread
00014558 g     O .bss	00000004 alt_argv
0001c4f0 g       *ABS*	00000000 _gp
00012e70 g     O .rwdata	00000180 alt_fd_list
00010a2c g     F .text	00000068 epcs_write_status_register
00011b80 g     F .text	00000090 alt_find_dev
00006e2c g     F .text	00000138 memcpy
000054fc g     F .text	0000000c _cleanup_r
0000dbec g     F .text	000000d0 .hidden __floatsidf
000114a4 g     F .text	00000078 alt_io_redirect
0000c948 g     F .text	000000e0 .hidden __ltdf2
0001219c g       *ABS*	00000000 __DTOR_END__
000015d0 g     F .text	00000014 puts
0000f154 g     F .text	00000100 alt_epcs_flash_write_block
000087a8 g     F .text	00000074 __fpclassifyd
00008024 g     F .text	000000a4 __ratio
00009e54 g     F .text	00000024 __vfiprintf_internal
0000f914 g     F .text	0000020c altera_avalon_jtag_uart_read
00000000  w      *UND*	00000000 malloc
000014c0 g     F .text	0000002c _printf_r
02004000 g       *ABS*	00000000 __alt_mem_onchip_memory2_0
0000b5b8 g     F .text	00000008 .hidden __udivsi3
0000e00c g     F .text	000000ac isatty
000123fc g     O .rodata	000000c8 __mprec_tens
00006380 g     F .text	0000000c __locale_charset
0001454c g     O .bss	00000004 __malloc_top_pad
000144f8 g     O .rwdata	00000004 __mb_cur_max
000063b0 g     F .text	0000000c _localeconv_r
00007618 g     F .text	0000003c __i2b
00005cb0 g     F .text	000004cc __sfvwrite_r
0000881c g     F .text	00000054 _sbrk_r
0000a4a8 g     F .text	0000005c _read_r
00014518 g     O .rwdata	00000004 alt_max_fd
0000a0bc g     F .text	000000f0 _fclose_r
000054bc g     F .text	00000030 fflush
00014548 g     O .bss	00000004 __malloc_max_sbrked_mem
0000134c g     F .text	00000110 .hidden __extendsfdf2
0000b5c8 g     F .text	0000089c .hidden __adddf3
00000594 g     F .text	000001d8 test_stearing
0000f0e0 g     F .text	00000074 alt_epcs_flash_erase_block
00007dcc g     F .text	0000011c __b2d
0000ae80 g     F .text	0000061c .hidden __umoddi3
0000e108 g     F .text	000000dc lseek
000144f0 g     O .rwdata	00000004 _global_impure_ptr
00010cf4 g     F .text	0000005c epcs_exit_4_bytes_mode
00008240 g     F .text	00000568 _realloc_r
00014694 g       *ABS*	00000000 __bss_end
000112d4 g     F .text	000000f0 alt_iic_isr_register
00011858 g     F .text	00000104 alt_tick
0000a840 g     F .text	00000640 .hidden __udivdi3
000004b0 g     F .text	000000e4 motor_setting
0000a1c0 g     F .text	00000184 _fputwc_r
000123d4 g     O .rodata	00000028 __mprec_bigtens
000073fc g     F .text	00000104 __s2b
0000dcbc g     F .text	000000a4 .hidden __floatunsidf
00007b74 g     F .text	00000060 __mcmp
0000ff44 g     F .text	000000a8 altera_avalon_uart_init
0000586c g     F .text	00000018 __fp_lock_all
00011288 g     F .text	0000004c alt_ic_irq_enabled
000117c0 g     F .text	00000098 alt_alarm_stop
00014560 g     O .bss	00000004 alt_irq_active
000000ec g     F .exceptions	000000d0 alt_irq_handler
00012e48 g     O .rwdata	00000028 alt_dev_null
00007500 g     F .text	00000068 __hi0bits
0000db64 g     F .text	00000088 .hidden __fixdfsi
00000950 g     F .text	000000bc steering_setting
00014510 g     O .rwdata	00000008 alt_dev_list
0000e570 g     F .text	00000100 write
0000df04 g     F .text	000000b8 fstat
0000c948 g     F .text	000000e0 .hidden __ledf2
000078e4 g     F .text	00000140 __pow5mult
00008b64 g     F .text	000012f0 ___vfiprintf_internal_r
00014540 g     O .bss	00000004 __nlocale_changed
0000b5c0 g     F .text	00000008 .hidden __umodsi3
00010bb0 g     F .text	00000068 epcs_read_electronic_signature
00014694 g       *ABS*	00000000 end
00010578 g     F .text	000001ac altera_avalon_uart_write
0000f450 g     F .text	000000c4 altera_avalon_jtag_uart_init
0001219c g       *ABS*	00000000 __CTOR_LIST__
02000000 g       *ABS*	00000000 __alt_stack_pointer
0000fdac g     F .text	00000088 alt_avalon_timer_sc_init
0000fe94 g     F .text	00000060 altera_avalon_uart_write_fd
0000145c g     F .text	00000064 .hidden __clzsi2
00000c7c g     F .text	00000060 uart_receive_byte
0000fef4 g     F .text	00000050 altera_avalon_uart_close_fd
0000fb20 g     F .text	00000218 altera_avalon_jtag_uart_write
00000bc4 g     F .text	0000004c uart_init
0000585c g     F .text	00000004 __sfp_lock_acquire
00006d44 g     F .text	000000e8 memchr
0000167c g     F .text	00002058 ___vfprintf_internal_r
000059c0 g     F .text	000002f0 _free_r
0000638c g     F .text	00000010 __locale_mb_cur_max
00011fd4 g     F .text	00000194 __call_exitprocs
0001453c g     O .bss	00000004 __mlocale_changed
000144fc g     O .rwdata	00000004 __malloc_sbrk_base
000001bc g     F .text	00000038 _start
00014564 g     O .bss	00000004 _alt_tick_rate
00007a24 g     F .text	00000150 __lshift
0001197c g     F .text	00000204 alt_avalon_spi_command
00014568 g     O .bss	00000004 _alt_nticks
0000e2ec g     F .text	00000104 read
0000e6dc g     F .text	00000118 alt_sys_init
00011ec0 g     F .text	00000114 __register_exitproc
00007654 g     F .text	00000290 __multiply
0000f7c0 g     F .text	00000068 altera_avalon_jtag_uart_close
00000dc4 g     F .text	00000028 .hidden __mulsi3
0001456c g     O .bss	00000028 __malloc_current_mallinfo
00007ee8 g     F .text	0000013c __d2b
00010724 g     F .text	0000005c epcs_read_status_register
0000f2ec g     F .text	00000060 altera_avalon_jtag_uart_read_fd
00011d24 g     F .text	000000d4 alt_get_fd
00009f90 g     F .text	00000054 _close_r
00010c18 g     F .text	00000080 epcs_read_device_id
00011e44 g     F .text	0000007c memcmp
0000f3ac g     F .text	00000050 altera_avalon_jtag_uart_close_fd
00014694 g       *ABS*	00000000 __alt_stack_base
0000f3fc g     F .text	00000054 altera_avalon_jtag_uart_ioctl_fd
02009000 g       *ABS*	00000000 __alt_mem_epcs_flash_controller_0
00000d10 g     F .text	000000b4 ultrasound_read
000037b4 g     F .text	00000154 __swsetup_r
0000be64 g     F .text	00000980 .hidden __divdf3
0000571c g     F .text	00000118 __sfp
0000813c g     F .text	00000078 __copybits
00012a40 g     O .rwdata	00000408 __malloc_av_
00005868 g     F .text	00000004 __sinit_lock_release
0000ca28 g     F .text	0000086c .hidden __muldf3
00008870 g     F .text	00000054 __sread
00011c10 g     F .text	00000114 alt_find_file
00010ee0 g     F .text	000000a4 alt_dev_llist_insert
0000e25c g     F .text	00000020 __malloc_lock
0000e470 g     F .text	000000b0 sbrk
00005460 g     F .text	0000005c _fflush_r
00009fe4 g     F .text	000000d8 _calloc_r
00014524 g     O .rwdata	00000008 alt_flash_dev_list
00014538 g       *ABS*	00000000 __bss_start
000070c0 g     F .text	00000124 memset
000001f4 g     F .text	000002bc main
0001455c g     O .bss	00000004 alt_envp
00014544 g     O .bss	00000004 __malloc_max_total_mem
0000f34c g     F .text	00000060 altera_avalon_jtag_uart_write_fd
0000a63c g     F .text	0000001c __swbuf
000089a4 g     F .text	00000008 __sclose
02000000 g       *ABS*	00000000 __alt_heap_limit
0000a1ac g     F .text	00000014 fclose
00003b30 g     F .text	00001728 _dtoa_r
0000659c g     F .text	000007a8 _malloc_r
0000a7b4 g     F .text	00000030 __ascii_wctomb
0001451c g     O .rwdata	00000004 alt_errno
0000617c g     F .text	000000c4 _fwalk
0000b508 g     F .text	00000054 .hidden __divsi3
0000589c g     F .text	00000124 _malloc_trim_r
0001219c g       *ABS*	00000000 __CTOR_END__
0000ed60 g     F .text	00000260 alt_epcs_flash_write
000089ac g     F .text	000000a4 strcmp
0001219c g       *ABS*	00000000 __DTOR_LIST__
0000c7e4 g     F .text	00000084 .hidden __nedf2
0000e6a8 g     F .text	00000034 alt_irq_init
0000e3f0 g     F .text	00000080 alt_release_fd
00012218 g     O .rodata	00000100 .hidden __clz_tab
00014538 g     O .bss	00000004 _PathLocale
00011df8 g     F .text	00000014 atexit
00009f34 g     F .text	0000005c _write_r
000063bc g     F .text	0000001c setlocale
000144f4 g     O .rwdata	00000004 _impure_ptr
00014554 g     O .bss	00000004 alt_argc
00005258 g     F .text	00000208 __sflush_r
00010fe0 g     F .text	0000005c _do_dtors
000063a8 g     F .text	00000008 __locale_cjk_lang
00000020 g       .exceptions	00000000 alt_irq_entry
00007d6c g     F .text	00000060 __ulp
00005884 g     F .text	00000018 __fp_unlock_all
00014508 g     O .rwdata	00000008 alt_fs_list
00000c10 g     F .text	0000006c uart_send_byte
000063d8 g     F .text	0000000c localeconv
000108e8 g     F .text	000000f4 epcs_read_buffer
0000e82c g     F .text	00000054 alt_epcs_flash_init
000110f4 g     F .text	00000050 alt_ic_isr_register
00014538 g       *ABS*	00000000 _edata
0000fe34 g     F .text	00000060 altera_avalon_uart_read_fd
00014694 g       *ABS*	00000000 _end
0001103c g     F .text	00000068 alt_flash_open_dev
0000f828 g     F .text	000000ec altera_avalon_jtag_uart_ioctl
000111e4 g     F .text	000000a4 alt_ic_irq_disable
00010c98 g     F .text	0000005c epcs_enter_4_bytes_mode
000088cc g     F .text	0000007c __swrite
00014500 g     O .rwdata	00000004 __malloc_trim_threshold
0001195c g     F .text	00000020 altera_nios2_qsys_irq_init
0000639c g     F .text	0000000c __locale_msgcharset
00011e0c g     F .text	00000038 exit
00006240 g     F .text	000000c4 _fwalk_reent
0000123c g     F .text	00000110 .hidden __floatunsisf
00007bd4 g     F .text	00000198 __mdiff
000110a4 g     F .text	00000050 alt_flash_close_dev
0000b55c g     F .text	0000005c .hidden __modsi3
02000000 g       *ABS*	00000000 __alt_data_end
00000020 g     F .exceptions	00000000 alt_exception
00005860 g     F .text	00000004 __sfp_lock_release
00000000 g       *ABS*	00000000 __alt_mem_sdram
000102a8 g     F .text	00000054 altera_avalon_uart_close
00012168 g     F .text	00000034 _exit
00010d50 g     F .text	00000140 alt_alarm_start
000063e4 g     F .text	000001b8 __smakebuf_r
00000a0c g     F .text	000001b8 steering_set_level
000015e4 g     F .text	00000098 strlen
000109dc g     F .text	00000050 epcs_write_enable
00011660 g     F .text	00000160 open
0000c868 g     F .text	000000e0 .hidden __gedf2
00014504 g     O .rwdata	00000004 __wctomb
00008b4c g     F .text	00000018 __sprint_r
0001452c g     O .rwdata	00000004 alt_priority_mask
00011144 g     F .text	000000a0 alt_ic_irq_enable
000036d4 g     F .text	00000024 __vfprintf_internal
0001034c g     F .text	000001dc altera_avalon_uart_read
0000a7e4 g     F .text	0000005c _wctomb_r
0000d294 g     F .text	000008d0 .hidden __subdf3
0000f254 g     F .text	00000098 alt_epcs_flash_read
00007568 g     F .text	000000b0 __lo0bits
00014530 g     O .rwdata	00000008 alt_alarm_list
00010f84 g     F .text	0000005c _do_ctors
0000a6f4 g     F .text	000000c0 wcrtomb
0000ddb0 g     F .text	000000d8 close
0000a344 g     F .text	0000005c fputwc
00000000  w      *UND*	00000000 free
00005864 g     F .text	00000004 __sinit_lock_acquire
00010a94 g     F .text	0000011c epcs_write_buffer
000072b4 g     F .text	00000148 __multadd
0000728c g     F .text	00000028 _Bfree



Disassembly of section .exceptions:

00000020 <alt_exception>:

#else /* ALT_EXCEPTION_STACK disabled */
        /* 
         * Reserve space on normal stack for registers about to be pushed.
         */
        addi  sp, sp, -76
  20:	deffed04 	addi	sp,sp,-76
         * documentation for details).
         *
         * Leave a gap in the stack frame at 4(sp) for the muldiv handler to
         * store zero into.
         */
        stw   ra,  0(sp)
  24:	dfc00015 	stw	ra,0(sp)
        stw   r1,   8(sp)
  28:	d8400215 	stw	at,8(sp)
        stw   r2,  12(sp)
  2c:	d8800315 	stw	r2,12(sp)
        stw   r3,  16(sp)
  30:	d8c00415 	stw	r3,16(sp)
        stw   r4,  20(sp)
  34:	d9000515 	stw	r4,20(sp)
        stw   r5,  24(sp)
  38:	d9400615 	stw	r5,24(sp)
        stw   r6,  28(sp)
  3c:	d9800715 	stw	r6,28(sp)
        stw   r7,  32(sp)
  40:	d9c00815 	stw	r7,32(sp)
        rdctl r5, estatus   /* Read early to avoid usage stall */
  44:	000b307a 	rdctl	r5,estatus
        stw   r8,  36(sp)
  48:	da000915 	stw	r8,36(sp)
        stw   r9,  40(sp)
  4c:	da400a15 	stw	r9,40(sp)
        stw   r10, 44(sp)
  50:	da800b15 	stw	r10,44(sp)
        stw   r11, 48(sp)
  54:	dac00c15 	stw	r11,48(sp)
        stw   r12, 52(sp)
  58:	db000d15 	stw	r12,52(sp)
        stw   r13, 56(sp)
  5c:	db400e15 	stw	r13,56(sp)
        stw   r14, 60(sp)
  60:	db800f15 	stw	r14,60(sp)
        stw   r15, 64(sp)
  64:	dbc01015 	stw	r15,64(sp)
        /*
         * ea-4 contains the address of the instruction being executed
         * when the exception occured. For interrupt exceptions, we will
         * will be re-issue the isntruction. Store it in 72(sp)
         */
        stw   r5,  68(sp)  /* estatus */
  68:	d9401115 	stw	r5,68(sp)
        addi  r15, ea, -4  /* instruction that caused exception */
  6c:	ebffff04 	addi	r15,ea,-4
        stw   r15,  72(sp)
  70:	dbc01215 	stw	r15,72(sp)
#else
        /*
         * Test to see if the exception was a software exception or caused 
         * by an external interrupt, and vector accordingly.
         */
        rdctl r4, ipending
  74:	0009313a 	rdctl	r4,ipending
        andi  r2, r5, 1
  78:	2880004c 	andi	r2,r5,1
        beq   r2, zero, .Lnot_irq
  7c:	10000326 	beq	r2,zero,8c <alt_exception+0x6c>
        beq   r4, zero, .Lnot_irq
  80:	20000226 	beq	r4,zero,8c <alt_exception+0x6c>
        /*
         * Now that all necessary registers have been preserved, call 
         * alt_irq_handler() to process the interrupts.
         */

        call alt_irq_handler
  84:	00000ec0 	call	ec <alt_irq_handler>

        .section .exceptions.irqreturn, "xa"

        br    .Lexception_exit
  88:	00000306 	br	98 <alt_exception_unknown+0x4>
         * upon completion, so we write ea (address of instruction *after*
         * the one where the exception occured) into 72(sp). The actual
         * instruction that caused the exception is written in r2, which these
         * handlers will utilize.
         */
        stw   ea,  72(sp)  /* Don't re-issue */
  8c:	df401215 	stw	ea,72(sp)
        ldw   r2, -4(ea)   /* Instruction that caused exception */
  90:	e8bfff17 	ldw	r2,-4(ea)

00000094 <alt_exception_unknown>:
#ifdef NIOS2_HAS_DEBUG_STUB
       /*
        *  Either tell the user now (if there is a debugger attached) or go into
        *  the debug monitor which will loop until a debugger is attached.
        */
        break
  94:	003da03a 	break	0
        /* 
         * Restore the saved registers, so that all general purpose registers 
         * have been restored to their state at the time the interrupt occured.
         */

        ldw   r5,  68(sp)
  98:	d9401117 	ldw	r5,68(sp)
        ldw   ea,  72(sp)  /* This becomes the PC once eret is executed */
  9c:	df401217 	ldw	ea,72(sp)
        ldw   ra,   0(sp)
  a0:	dfc00017 	ldw	ra,0(sp)

        wrctl estatus, r5
  a4:	2801707a 	wrctl	estatus,r5

        ldw   r1,   8(sp)
  a8:	d8400217 	ldw	at,8(sp)
        ldw   r2,  12(sp)
  ac:	d8800317 	ldw	r2,12(sp)
        ldw   r3,  16(sp)
  b0:	d8c00417 	ldw	r3,16(sp)
        ldw   r4,  20(sp)
  b4:	d9000517 	ldw	r4,20(sp)
        ldw   r5,  24(sp)
  b8:	d9400617 	ldw	r5,24(sp)
        ldw   r6,  28(sp)
  bc:	d9800717 	ldw	r6,28(sp)
        ldw   r7,  32(sp)
  c0:	d9c00817 	ldw	r7,32(sp)

#if defined(ALT_EXCEPTION_STACK) && defined(ALT_STACK_CHECK)
        ldw   et, %gprel(alt_exception_old_stack_limit)(gp)
#endif

        ldw   r8,  36(sp)
  c4:	da000917 	ldw	r8,36(sp)
        ldw   r9,  40(sp)
  c8:	da400a17 	ldw	r9,40(sp)
        ldw   r10, 44(sp)
  cc:	da800b17 	ldw	r10,44(sp)
        ldw   r11, 48(sp)
  d0:	dac00c17 	ldw	r11,48(sp)
        ldw   r12, 52(sp)
  d4:	db000d17 	ldw	r12,52(sp)
        ldw   r13, 56(sp)
  d8:	db400e17 	ldw	r13,56(sp)
        ldw   r14, 60(sp)
  dc:	db800f17 	ldw	r14,60(sp)
        ldw   r15, 64(sp)
  e0:	dbc01017 	ldw	r15,64(sp)
        stw   et, %gprel(alt_stack_limit_value)(gp)
        stw   zero, %gprel(alt_exception_old_stack_limit)(gp)
#endif /* ALT_STACK_CHECK */
        ldw   sp,  76(sp)
#else /* ALT_EXCEPTION_STACK disabled */
        addi  sp, sp, 76
  e4:	dec01304 	addi	sp,sp,76

        /*
         * Return to the interrupted instruction.
         */

        eret
  e8:	ef80083a 	eret

000000ec <alt_irq_handler>:
 * instruction is present if the macro ALT_CI_INTERRUPT_VECTOR defined.
 */

void alt_irq_handler (void) __attribute__ ((section (".exceptions")));
void alt_irq_handler (void)
{
  ec:	defff904 	addi	sp,sp,-28
  f0:	dfc00615 	stw	ra,24(sp)
  f4:	df000515 	stw	fp,20(sp)
  f8:	df000504 	addi	fp,sp,20
  
  /*
   * Notify the operating system that we are at interrupt level.
   */ 
  
  ALT_OS_INT_ENTER();
  fc:	0001883a 	nop
#ifndef NIOS2_EIC_PRESENT
static ALT_INLINE alt_u32 ALT_ALWAYS_INLINE alt_irq_pending (void)
{
  alt_u32 active;

  NIOS2_READ_IPENDING (active);
 100:	0005313a 	rdctl	r2,ipending
 104:	e0bffe15 	stw	r2,-8(fp)

  return active;
 108:	e0bffe17 	ldw	r2,-8(fp)
   * Consider the case where the high priority interupt is asserted during
   * the interrupt entry sequence for a lower priority interrupt to see why
   * this is the case.
   */

  active = alt_irq_pending ();
 10c:	e0bffb15 	stw	r2,-20(fp)

  do
  {
    i = 0;
 110:	e03ffd15 	stw	zero,-12(fp)
    mask = 1;
 114:	00800044 	movi	r2,1
 118:	e0bffc15 	stw	r2,-16(fp)
     * called to clear the interrupt condition.
     */

    do
    {
      if (active & mask)
 11c:	e0fffb17 	ldw	r3,-20(fp)
 120:	e0bffc17 	ldw	r2,-16(fp)
 124:	1884703a 	and	r2,r3,r2
 128:	10001426 	beq	r2,zero,17c <alt_irq_handler+0x90>
      { 
#ifdef ALT_ENHANCED_INTERRUPT_API_PRESENT
        alt_irq[i].handler(alt_irq[i].context); 
 12c:	00800074 	movhi	r2,1
 130:	10916504 	addi	r2,r2,17812
 134:	e0fffd17 	ldw	r3,-12(fp)
 138:	180690fa 	slli	r3,r3,3
 13c:	10c5883a 	add	r2,r2,r3
 140:	10c00017 	ldw	r3,0(r2)
 144:	00800074 	movhi	r2,1
 148:	10916504 	addi	r2,r2,17812
 14c:	e13ffd17 	ldw	r4,-12(fp)
 150:	200890fa 	slli	r4,r4,3
 154:	21000104 	addi	r4,r4,4
 158:	1105883a 	add	r2,r2,r4
 15c:	10800017 	ldw	r2,0(r2)
 160:	1009883a 	mov	r4,r2
 164:	183ee83a 	callr	r3
#else
        alt_irq[i].handler(alt_irq[i].context, i); 
#endif
        break;
 168:	0001883a 	nop
#ifndef NIOS2_EIC_PRESENT
static ALT_INLINE alt_u32 ALT_ALWAYS_INLINE alt_irq_pending (void)
{
  alt_u32 active;

  NIOS2_READ_IPENDING (active);
 16c:	0005313a 	rdctl	r2,ipending
 170:	e0bfff15 	stw	r2,-4(fp)

  return active;
 174:	e0bfff17 	ldw	r2,-4(fp)
 178:	00000706 	br	198 <alt_irq_handler+0xac>
      }
      mask <<= 1;
 17c:	e0bffc17 	ldw	r2,-16(fp)
 180:	1085883a 	add	r2,r2,r2
 184:	e0bffc15 	stw	r2,-16(fp)
      i++;
 188:	e0bffd17 	ldw	r2,-12(fp)
 18c:	10800044 	addi	r2,r2,1
 190:	e0bffd15 	stw	r2,-12(fp)

    } while (1);
 194:	003fe106 	br	11c <alt_irq_handler+0x30>

    active = alt_irq_pending ();
 198:	e0bffb15 	stw	r2,-20(fp)
    
  } while (active);
 19c:	e0bffb17 	ldw	r2,-20(fp)
 1a0:	103fdb1e 	bne	r2,zero,110 <alt_irq_handler+0x24>

  /*
   * Notify the operating system that interrupt processing is complete.
   */ 

  ALT_OS_INT_EXIT();
 1a4:	0001883a 	nop
}
 1a8:	e037883a 	mov	sp,fp
 1ac:	dfc00117 	ldw	ra,4(sp)
 1b0:	df000017 	ldw	fp,0(sp)
 1b4:	dec00204 	addi	sp,sp,8
 1b8:	f800283a 	ret

Disassembly of section .text:

000001bc <_start>:

    /*
     * Now that the caches are initialized, set up the stack pointer and global pointer.
     * The values provided by the linker are assumed to be correctly aligned.
     */
    movhi sp, %hi(__alt_stack_pointer)
     1bc:	06c08034 	movhi	sp,512
    ori sp, sp, %lo(__alt_stack_pointer)
     1c0:	dec00014 	ori	sp,sp,0
    movhi gp, %hi(_gp)
     1c4:	06800074 	movhi	gp,1
    ori gp, gp, %lo(_gp)
     1c8:	d6b13c14 	ori	gp,gp,50416
 */
#ifndef ALT_SIM_OPTIMIZE
    /* Log that the BSS is about to be cleared. */
    ALT_LOG_PUTS(alt_log_msg_bss)

    movhi r2, %hi(__bss_start)
     1cc:	00800074 	movhi	r2,1
    ori r2, r2, %lo(__bss_start)
     1d0:	10914e14 	ori	r2,r2,17720

    movhi r3, %hi(__bss_end)
     1d4:	00c00074 	movhi	r3,1
    ori r3, r3, %lo(__bss_end)
     1d8:	18d1a514 	ori	r3,r3,18068

    beq r2, r3, 1f
     1dc:	10c00326 	beq	r2,r3,1ec <_start+0x30>

0:
    stw zero, (r2)
     1e0:	10000015 	stw	zero,0(r2)
    addi r2, r2, 4
     1e4:	10800104 	addi	r2,r2,4
    bltu r2, r3, 0b
     1e8:	10fffd36 	bltu	r2,r3,1e0 <_start+0x24>

    /* Log that alt_main is about to be called. */
    ALT_LOG_PUTS(alt_log_msg_alt_main)

    /* Call the C entry point. It should never return. */
    call alt_main
     1ec:	000e1e40 	call	e1e4 <alt_main>

000001f0 <alt_after_alt_main>:

    /* Wait in infinite loop in case alt_main does return. */
alt_after_alt_main:
    br alt_after_alt_main
     1f0:	003fff06 	br	1f0 <alt_after_alt_main>

000001f4 <main>:
 */

#include "main.h"

int main()
{
     1f4:	deffe904 	addi	sp,sp,-92
     1f8:	dfc01615 	stw	ra,88(sp)
     1fc:	df001515 	stw	fp,84(sp)
     200:	df001504 	addi	fp,sp,84
	printf("Running!\n");
     204:	01000074 	movhi	r4,1
     208:	21086704 	addi	r4,r4,8604
     20c:	00015d00 	call	15d0 <puts>

	//Assign motor pins
	unsigned long m_phase1=0x0,m_phase2=0x000,m_duty1=0x0,m_duty2=0x0,m_period=0x186A,m_enable=0x3;
     210:	e03ff215 	stw	zero,-56(fp)
     214:	e03ff315 	stw	zero,-52(fp)
     218:	e03fed15 	stw	zero,-76(fp)
     21c:	e03ff415 	stw	zero,-48(fp)
     220:	00861a84 	movi	r2,6250
     224:	e0bff515 	stw	r2,-44(fp)
     228:	008000c4 	movi	r2,3
     22c:	e0bff615 	stw	r2,-40(fp)
	motor_setting(m_phase1,m_duty1,m_phase2,m_duty2,m_period,m_enable);
     230:	e0bff517 	ldw	r2,-44(fp)
     234:	d8800015 	stw	r2,0(sp)
     238:	e0bff617 	ldw	r2,-40(fp)
     23c:	d8800115 	stw	r2,4(sp)
     240:	e13ff217 	ldw	r4,-56(fp)
     244:	e17fed17 	ldw	r5,-76(fp)
     248:	e1bff317 	ldw	r6,-52(fp)
     24c:	e1fff417 	ldw	r7,-48(fp)
     250:	00004b00 	call	4b0 <motor_setting>

	//Assign steering pins
	unsigned long s_phase1=0x0,s_phase2=0x000,s_duty1=0x0,s_duty2=0x0,s_period=0x186A,s_enable=0x3;
     254:	e03ff715 	stw	zero,-36(fp)
     258:	e03ff815 	stw	zero,-32(fp)
     25c:	e03fee15 	stw	zero,-72(fp)
     260:	e03fef15 	stw	zero,-68(fp)
     264:	00861a84 	movi	r2,6250
     268:	e0bff915 	stw	r2,-28(fp)
     26c:	008000c4 	movi	r2,3
     270:	e0bffa15 	stw	r2,-24(fp)
	steering_setting(s_phase1,s_duty1,s_phase2,s_duty2,s_period,s_enable);
     274:	e0bff917 	ldw	r2,-28(fp)
     278:	d8800015 	stw	r2,0(sp)
     27c:	e0bffa17 	ldw	r2,-24(fp)
     280:	d8800115 	stw	r2,4(sp)
     284:	e13ff717 	ldw	r4,-36(fp)
     288:	e17fee17 	ldw	r5,-72(fp)
     28c:	e1bff817 	ldw	r6,-32(fp)
     290:	e1ffef17 	ldw	r7,-68(fp)
     294:	00009500 	call	950 <steering_setting>


	//Intit Ultrasound
	unsigned int distance0, distance1, distance2, i, j = 0;
     298:	e03ff115 	stw	zero,-60(fp)
	ultrasound_init(NEW_ULTRASOUND0_BASE);
     29c:	01008074 	movhi	r4,513
     2a0:	21288804 	addi	r4,r4,-24032
     2a4:	0000cdc0 	call	cdc <ultrasound_init>
	ultrasound_init(NEW_ULTRASOUND1_BASE);
     2a8:	01008074 	movhi	r4,513
     2ac:	21288004 	addi	r4,r4,-24064
     2b0:	0000cdc0 	call	cdc <ultrasound_init>
	ultrasound_init(NEW_ULTRASOUND2_BASE);
     2b4:	01008074 	movhi	r4,513
     2b8:	21287804 	addi	r4,r4,-24096
     2bc:	0000cdc0 	call	cdc <ultrasound_init>
	printf("Ultrasound initialized!\n");
     2c0:	01000074 	movhi	r4,1
     2c4:	21086a04 	addi	r4,r4,8616
     2c8:	00015d00 	call	15d0 <puts>



	while(1){
		//Get sensor values
		distance0 = ultrasound_read(NEW_ULTRASOUND0_BASE) * 170;
     2cc:	01008074 	movhi	r4,513
     2d0:	21288804 	addi	r4,r4,-24032
     2d4:	0000d100 	call	d10 <ultrasound_read>
     2d8:	1009883a 	mov	r4,r2
     2dc:	01402a84 	movi	r5,170
     2e0:	0000dc40 	call	dc4 <__mulsi3>
     2e4:	e0bffb15 	stw	r2,-20(fp)
		distance1 = ultrasound_read(NEW_ULTRASOUND1_BASE);
     2e8:	01008074 	movhi	r4,513
     2ec:	21288004 	addi	r4,r4,-24064
     2f0:	0000d100 	call	d10 <ultrasound_read>
     2f4:	e0bffc15 	stw	r2,-16(fp)
		distance2 = ultrasound_read(NEW_ULTRASOUND2_BASE);
     2f8:	01008074 	movhi	r4,513
     2fc:	21287804 	addi	r4,r4,-24096
     300:	0000d100 	call	d10 <ultrasound_read>
     304:	e0bffd15 	stw	r2,-12(fp)

		//Check for possible collision
		if(distance0>50000){
     308:	e0bffb17 	ldw	r2,-20(fp)
     30c:	10b0d470 	cmpltui	r2,r2,50001
     310:	1000031e 	bne	r2,zero,320 <main+0x12c>
			m_duty1 = 0x186A;
     314:	00861a84 	movi	r2,6250
     318:	e0bfed15 	stw	r2,-76(fp)
     31c:	00000106 	br	324 <main+0x130>
		}else{
			m_duty1 = 0x0;
     320:	e03fed15 	stw	zero,-76(fp)
		}


		if(distance1>893){ //893 is about 0,15181m
     324:	e0bffc17 	ldw	r2,-16(fp)
     328:	1080dfb0 	cmpltui	r2,r2,894
     32c:	1000021e 	bne	r2,zero,338 <main+0x144>
			s_duty1 = 0x0;
     330:	e03fee15 	stw	zero,-72(fp)
     334:	00000806 	br	358 <main+0x164>
		}else{
			//7 and 1000 are constants calculated with a period of 0x186A
			//Add 1000 to have max value at 2,5cm (will result in duty > 100%)
			s_duty1 = s_period - distance1*7 + 1000;
     338:	e13ffc17 	ldw	r4,-16(fp)
     33c:	014001c4 	movi	r5,7
     340:	0000dc40 	call	dc4 <__mulsi3>
     344:	1007883a 	mov	r3,r2
     348:	e0bff917 	ldw	r2,-28(fp)
     34c:	10c5c83a 	sub	r2,r2,r3
     350:	1080fa04 	addi	r2,r2,1000
     354:	e0bfee15 	stw	r2,-72(fp)
		}
		if(distance2>893){
     358:	e0bffd17 	ldw	r2,-12(fp)
     35c:	1080dfb0 	cmpltui	r2,r2,894
     360:	1000021e 	bne	r2,zero,36c <main+0x178>
			s_duty2 = 0x0;
     364:	e03fef15 	stw	zero,-68(fp)
     368:	00000806 	br	38c <main+0x198>
		}else{
			s_duty2 = s_period - distance2*7 + 1000;
     36c:	e13ffd17 	ldw	r4,-12(fp)
     370:	014001c4 	movi	r5,7
     374:	0000dc40 	call	dc4 <__mulsi3>
     378:	1007883a 	mov	r3,r2
     37c:	e0bff917 	ldw	r2,-28(fp)
     380:	10c5c83a 	sub	r2,r2,r3
     384:	1080fa04 	addi	r2,r2,1000
     388:	e0bfef15 	stw	r2,-68(fp)
		}

		//Set PWM-Signals
		steering_setting(s_phase1,s_duty1,s_phase2,s_duty2,s_period,s_enable);
     38c:	e0bff917 	ldw	r2,-28(fp)
     390:	d8800015 	stw	r2,0(sp)
     394:	e0bffa17 	ldw	r2,-24(fp)
     398:	d8800115 	stw	r2,4(sp)
     39c:	e13ff717 	ldw	r4,-36(fp)
     3a0:	e17fee17 	ldw	r5,-72(fp)
     3a4:	e1bff817 	ldw	r6,-32(fp)
     3a8:	e1ffef17 	ldw	r7,-68(fp)
     3ac:	00009500 	call	950 <steering_setting>
		motor_setting(m_phase1, m_duty1, m_phase2, m_duty2, m_period, m_enable);
     3b0:	e0bff517 	ldw	r2,-44(fp)
     3b4:	d8800015 	stw	r2,0(sp)
     3b8:	e0bff617 	ldw	r2,-40(fp)
     3bc:	d8800115 	stw	r2,4(sp)
     3c0:	e13ff217 	ldw	r4,-56(fp)
     3c4:	e17fed17 	ldw	r5,-76(fp)
     3c8:	e1bff317 	ldw	r6,-52(fp)
     3cc:	e1fff417 	ldw	r7,-48(fp)
     3d0:	00004b00 	call	4b0 <motor_setting>

		float duty1pr = ((float) s_duty1) / 6251.0;
     3d4:	e13fee17 	ldw	r4,-72(fp)
     3d8:	000123c0 	call	123c <__floatunsisf>
     3dc:	1007883a 	mov	r3,r2
     3e0:	1809883a 	mov	r4,r3
     3e4:	015170f4 	movhi	r5,17859
     3e8:	29560004 	addi	r5,r5,22528
     3ec:	0000dec0 	call	dec <__divsf3>
     3f0:	1007883a 	mov	r3,r2
     3f4:	e0fffe15 	stw	r3,-8(fp)
		float duty2pr = ((float) s_duty2) / 6251.0;
     3f8:	e13fef17 	ldw	r4,-68(fp)
     3fc:	000123c0 	call	123c <__floatunsisf>
     400:	1007883a 	mov	r3,r2
     404:	1809883a 	mov	r4,r3
     408:	015170f4 	movhi	r5,17859
     40c:	29560004 	addi	r5,r5,22528
     410:	0000dec0 	call	dec <__divsf3>
     414:	1007883a 	mov	r3,r2
     418:	e0ffff15 	stw	r3,-4(fp)
		printf("Steering duty1 is: %f\twith distance: %i\n", duty1pr, distance1);
     41c:	e13ffe17 	ldw	r4,-8(fp)
     420:	000134c0 	call	134c <__extendsfdf2>
     424:	100d883a 	mov	r6,r2
     428:	180f883a 	mov	r7,r3
     42c:	01000074 	movhi	r4,1
     430:	21087004 	addi	r4,r4,8640
     434:	300b883a 	mov	r5,r6
     438:	380d883a 	mov	r6,r7
     43c:	e1fffc17 	ldw	r7,-16(fp)
     440:	00014ec0 	call	14ec <printf>
		printf("Steering duty2 is: %f\twith distance: %i\n", duty2pr, distance2);
     444:	e13fff17 	ldw	r4,-4(fp)
     448:	000134c0 	call	134c <__extendsfdf2>
     44c:	100d883a 	mov	r6,r2
     450:	180f883a 	mov	r7,r3
     454:	01000074 	movhi	r4,1
     458:	21087b04 	addi	r4,r4,8684
     45c:	300b883a 	mov	r5,r6
     460:	380d883a 	mov	r6,r7
     464:	e1fffd17 	ldw	r7,-12(fp)
     468:	00014ec0 	call	14ec <printf>

		for(i = 0; i<2550; i++){
     46c:	e03ff015 	stw	zero,-64(fp)
     470:	00000b06 	br	4a0 <main+0x2ac>
			for(j = 0; j<10; j++);
     474:	e03ff115 	stw	zero,-60(fp)
     478:	00000306 	br	488 <main+0x294>
     47c:	e0bff117 	ldw	r2,-60(fp)
     480:	10800044 	addi	r2,r2,1
     484:	e0bff115 	stw	r2,-60(fp)
     488:	e0bff117 	ldw	r2,-60(fp)
     48c:	108002b0 	cmpltui	r2,r2,10
     490:	103ffa1e 	bne	r2,zero,47c <main+0x288>
		float duty1pr = ((float) s_duty1) / 6251.0;
		float duty2pr = ((float) s_duty2) / 6251.0;
		printf("Steering duty1 is: %f\twith distance: %i\n", duty1pr, distance1);
		printf("Steering duty2 is: %f\twith distance: %i\n", duty2pr, distance2);

		for(i = 0; i<2550; i++){
     494:	e0bff017 	ldw	r2,-64(fp)
     498:	10800044 	addi	r2,r2,1
     49c:	e0bff015 	stw	r2,-64(fp)
     4a0:	e0bff017 	ldw	r2,-64(fp)
     4a4:	10827db0 	cmpltui	r2,r2,2550
     4a8:	103ff21e 	bne	r2,zero,474 <main+0x280>
			for(j = 0; j<10; j++);
		} //Got delay value through testing; prevents sensors from crashing

	}
     4ac:	003f8706 	br	2cc <main+0xd8>

000004b0 <motor_setting>:
//phase1 -> forward
//phase2 -> backward
//will only set one pin greater zero
void motor_setting(unsigned long phase1, unsigned long duty1,unsigned long phase2, unsigned long duty2,
		unsigned long period,unsigned long enable)
{
     4b0:	defff504 	addi	sp,sp,-44
     4b4:	df000a15 	stw	fp,40(sp)
     4b8:	df000a04 	addi	fp,sp,40
     4bc:	e13ffc15 	stw	r4,-16(fp)
     4c0:	e17ffd15 	stw	r5,-12(fp)
     4c4:	e1bffe15 	stw	r6,-8(fp)
     4c8:	e1ffff15 	stw	r7,-4(fp)
	if(phase1>0 && phase2>0){
     4cc:	e0bffc17 	ldw	r2,-16(fp)
     4d0:	10000826 	beq	r2,zero,4f4 <motor_setting+0x44>
     4d4:	e0bffe17 	ldw	r2,-8(fp)
     4d8:	10000626 	beq	r2,zero,4f4 <motor_setting+0x44>
		if(phase1>=phase2) phase2 = 0;
     4dc:	e0fffc17 	ldw	r3,-16(fp)
     4e0:	e0bffe17 	ldw	r2,-8(fp)
     4e4:	18800236 	bltu	r3,r2,4f0 <motor_setting+0x40>
     4e8:	e03ffe15 	stw	zero,-8(fp)
     4ec:	00000106 	br	4f4 <motor_setting+0x44>
		else phase1 = 0;
     4f0:	e03ffc15 	stw	zero,-16(fp)

	}

	unsigned long * pwm_en= (unsigned long *)MOTOR_PWM_EN;
     4f4:	00808074 	movhi	r2,513
     4f8:	10a8b004 	addi	r2,r2,-23872
     4fc:	e0bff615 	stw	r2,-40(fp)
	unsigned long * pwm_period=(unsigned long *)MOTOR_PWM_PERIOD;
     500:	00808074 	movhi	r2,513
     504:	10a8b104 	addi	r2,r2,-23868
     508:	e0bff715 	stw	r2,-36(fp)
	unsigned long * pwm_phase1=(unsigned long *)MOTOR_PWM_PHASE1;
     50c:	00808074 	movhi	r2,513
     510:	10a8b404 	addi	r2,r2,-23856
     514:	e0bff815 	stw	r2,-32(fp)
	unsigned long * pwm_phase2=(unsigned long *)MOTOR_PWM_PHASE2;
     518:	00808074 	movhi	r2,513
     51c:	10a8b504 	addi	r2,r2,-23852
     520:	e0bff915 	stw	r2,-28(fp)
	unsigned long * pwm_duty1=(unsigned long *)MOTOR_PWM_DUTY1;
     524:	00808074 	movhi	r2,513
     528:	10a8b204 	addi	r2,r2,-23864
     52c:	e0bffa15 	stw	r2,-24(fp)
	unsigned long * pwm_duty2=(unsigned long *)MOTOR_PWM_DUTY2;
     530:	00808074 	movhi	r2,513
     534:	10a8b304 	addi	r2,r2,-23860
     538:	e0bffb15 	stw	r2,-20(fp)

	* pwm_en=enable;
     53c:	e0bff617 	ldw	r2,-40(fp)
     540:	e0c00217 	ldw	r3,8(fp)
     544:	10c00015 	stw	r3,0(r2)
	* pwm_period=period;
     548:	e0bff717 	ldw	r2,-36(fp)
     54c:	e0c00117 	ldw	r3,4(fp)
     550:	10c00015 	stw	r3,0(r2)
	* pwm_phase1=phase1;
     554:	e0bff817 	ldw	r2,-32(fp)
     558:	e0fffc17 	ldw	r3,-16(fp)
     55c:	10c00015 	stw	r3,0(r2)
	* pwm_phase2=phase2;
     560:	e0bff917 	ldw	r2,-28(fp)
     564:	e0fffe17 	ldw	r3,-8(fp)
     568:	10c00015 	stw	r3,0(r2)
	* pwm_duty1=duty1;
     56c:	e0bffa17 	ldw	r2,-24(fp)
     570:	e0fffd17 	ldw	r3,-12(fp)
     574:	10c00015 	stw	r3,0(r2)
	* pwm_duty2=duty2;
     578:	e0bffb17 	ldw	r2,-20(fp)
     57c:	e0ffff17 	ldw	r3,-4(fp)
     580:	10c00015 	stw	r3,0(r2)

}
     584:	e037883a 	mov	sp,fp
     588:	df000017 	ldw	fp,0(sp)
     58c:	dec00104 	addi	sp,sp,4
     590:	f800283a 	ret

00000594 <test_stearing>:
#include "pin_tests.h"

//function to test stearing pins (will not terminate!)
//type 1: alternate on pin 1; sets pin 2 to zero
//type 2: alternate on pin 2; sets pin 1 to zero
void test_stearing(unsigned int test_type, unsigned long s_period){
     594:	defff604 	addi	sp,sp,-40
     598:	dfc00915 	stw	ra,36(sp)
     59c:	df000815 	stw	fp,32(sp)
     5a0:	df000804 	addi	fp,sp,32
     5a4:	e13ffe15 	stw	r4,-8(fp)
     5a8:	e17fff15 	stw	r5,-4(fp)

	if(test_type==1){ //test 1
     5ac:	e0bffe17 	ldw	r2,-8(fp)
     5b0:	10800058 	cmpnei	r2,r2,1
     5b4:	1000321e 	bne	r2,zero,680 <test_stearing+0xec>
		unsigned long s_duty1 = 0;
     5b8:	e03ffa15 	stw	zero,-24(fp)
		unsigned int i = 0;
     5bc:	e03ffb15 	stw	zero,-20(fp)
		while(1){
			while(s_duty1<s_period){
     5c0:	00001406 	br	614 <test_stearing+0x80>
				steering_setting(0, s_duty1, 0, 0, s_period, 1);
     5c4:	e0bfff17 	ldw	r2,-4(fp)
     5c8:	d8800015 	stw	r2,0(sp)
     5cc:	00800044 	movi	r2,1
     5d0:	d8800115 	stw	r2,4(sp)
     5d4:	0009883a 	mov	r4,zero
     5d8:	e17ffa17 	ldw	r5,-24(fp)
     5dc:	000d883a 	mov	r6,zero
     5e0:	000f883a 	mov	r7,zero
     5e4:	00009500 	call	950 <steering_setting>
				s_duty1 += 10;
     5e8:	e0bffa17 	ldw	r2,-24(fp)
     5ec:	10800284 	addi	r2,r2,10
     5f0:	e0bffa15 	stw	r2,-24(fp)
				for(i=0;i<2550;i++); //delay
     5f4:	e03ffb15 	stw	zero,-20(fp)
     5f8:	00000306 	br	608 <test_stearing+0x74>
     5fc:	e0bffb17 	ldw	r2,-20(fp)
     600:	10800044 	addi	r2,r2,1
     604:	e0bffb15 	stw	r2,-20(fp)
     608:	e0bffb17 	ldw	r2,-20(fp)
     60c:	10827db0 	cmpltui	r2,r2,2550
     610:	103ffa1e 	bne	r2,zero,5fc <test_stearing+0x68>

	if(test_type==1){ //test 1
		unsigned long s_duty1 = 0;
		unsigned int i = 0;
		while(1){
			while(s_duty1<s_period){
     614:	e0fffa17 	ldw	r3,-24(fp)
     618:	e0bfff17 	ldw	r2,-4(fp)
     61c:	18bfe936 	bltu	r3,r2,5c4 <test_stearing+0x30>
				steering_setting(0, s_duty1, 0, 0, s_period, 1);
				s_duty1 += 10;
				for(i=0;i<2550;i++); //delay
			}
			while(s_duty1>0){
     620:	00001406 	br	674 <test_stearing+0xe0>
				steering_setting(0, s_duty1, 0, 0, s_period, 1);
     624:	e0bfff17 	ldw	r2,-4(fp)
     628:	d8800015 	stw	r2,0(sp)
     62c:	00800044 	movi	r2,1
     630:	d8800115 	stw	r2,4(sp)
     634:	0009883a 	mov	r4,zero
     638:	e17ffa17 	ldw	r5,-24(fp)
     63c:	000d883a 	mov	r6,zero
     640:	000f883a 	mov	r7,zero
     644:	00009500 	call	950 <steering_setting>
				s_duty1 -= 10;
     648:	e0bffa17 	ldw	r2,-24(fp)
     64c:	10bffd84 	addi	r2,r2,-10
     650:	e0bffa15 	stw	r2,-24(fp)
				for(i=0;i<2550;i++); //delay
     654:	e03ffb15 	stw	zero,-20(fp)
     658:	00000306 	br	668 <test_stearing+0xd4>
     65c:	e0bffb17 	ldw	r2,-20(fp)
     660:	10800044 	addi	r2,r2,1
     664:	e0bffb15 	stw	r2,-20(fp)
     668:	e0bffb17 	ldw	r2,-20(fp)
     66c:	10827db0 	cmpltui	r2,r2,2550
     670:	103ffa1e 	bne	r2,zero,65c <test_stearing+0xc8>
			while(s_duty1<s_period){
				steering_setting(0, s_duty1, 0, 0, s_period, 1);
				s_duty1 += 10;
				for(i=0;i<2550;i++); //delay
			}
			while(s_duty1>0){
     674:	e0bffa17 	ldw	r2,-24(fp)
     678:	103fea1e 	bne	r2,zero,624 <test_stearing+0x90>
				steering_setting(0, s_duty1, 0, 0, s_period, 1);
				s_duty1 -= 10;
				for(i=0;i<2550;i++); //delay
			}
		}
     67c:	003fd006 	br	5c0 <test_stearing+0x2c>
	}else if(test_type==2){ //test 2
     680:	e0bffe17 	ldw	r2,-8(fp)
     684:	10800098 	cmpnei	r2,r2,2
     688:	1000321e 	bne	r2,zero,754 <test_stearing+0x1c0>
		unsigned long s_duty2 = 0;
     68c:	e03ffc15 	stw	zero,-16(fp)
		unsigned int i = 0;
     690:	e03ffd15 	stw	zero,-12(fp)
		while(1){
			while(s_duty2<s_period){
     694:	00001406 	br	6e8 <test_stearing+0x154>
				steering_setting(0, 0, 0, s_duty2, s_period, 2);
     698:	e0bfff17 	ldw	r2,-4(fp)
     69c:	d8800015 	stw	r2,0(sp)
     6a0:	00800084 	movi	r2,2
     6a4:	d8800115 	stw	r2,4(sp)
     6a8:	0009883a 	mov	r4,zero
     6ac:	000b883a 	mov	r5,zero
     6b0:	000d883a 	mov	r6,zero
     6b4:	e1fffc17 	ldw	r7,-16(fp)
     6b8:	00009500 	call	950 <steering_setting>
				s_duty2 += 10;
     6bc:	e0bffc17 	ldw	r2,-16(fp)
     6c0:	10800284 	addi	r2,r2,10
     6c4:	e0bffc15 	stw	r2,-16(fp)
				for(i=0;i<2550;i++); //delay
     6c8:	e03ffd15 	stw	zero,-12(fp)
     6cc:	00000306 	br	6dc <test_stearing+0x148>
     6d0:	e0bffd17 	ldw	r2,-12(fp)
     6d4:	10800044 	addi	r2,r2,1
     6d8:	e0bffd15 	stw	r2,-12(fp)
     6dc:	e0bffd17 	ldw	r2,-12(fp)
     6e0:	10827db0 	cmpltui	r2,r2,2550
     6e4:	103ffa1e 	bne	r2,zero,6d0 <test_stearing+0x13c>
		}
	}else if(test_type==2){ //test 2
		unsigned long s_duty2 = 0;
		unsigned int i = 0;
		while(1){
			while(s_duty2<s_period){
     6e8:	e0fffc17 	ldw	r3,-16(fp)
     6ec:	e0bfff17 	ldw	r2,-4(fp)
     6f0:	18bfe936 	bltu	r3,r2,698 <test_stearing+0x104>
				steering_setting(0, 0, 0, s_duty2, s_period, 2);
				s_duty2 += 10;
				for(i=0;i<2550;i++); //delay
			}
			while(s_duty2>0){
     6f4:	00001406 	br	748 <test_stearing+0x1b4>
				steering_setting(0, 0, 0, s_duty2, s_period, 2);
     6f8:	e0bfff17 	ldw	r2,-4(fp)
     6fc:	d8800015 	stw	r2,0(sp)
     700:	00800084 	movi	r2,2
     704:	d8800115 	stw	r2,4(sp)
     708:	0009883a 	mov	r4,zero
     70c:	000b883a 	mov	r5,zero
     710:	000d883a 	mov	r6,zero
     714:	e1fffc17 	ldw	r7,-16(fp)
     718:	00009500 	call	950 <steering_setting>
				s_duty2 -= 10;
     71c:	e0bffc17 	ldw	r2,-16(fp)
     720:	10bffd84 	addi	r2,r2,-10
     724:	e0bffc15 	stw	r2,-16(fp)
				for(i=0;i<2550;i++); //delay
     728:	e03ffd15 	stw	zero,-12(fp)
     72c:	00000306 	br	73c <test_stearing+0x1a8>
     730:	e0bffd17 	ldw	r2,-12(fp)
     734:	10800044 	addi	r2,r2,1
     738:	e0bffd15 	stw	r2,-12(fp)
     73c:	e0bffd17 	ldw	r2,-12(fp)
     740:	10827db0 	cmpltui	r2,r2,2550
     744:	103ffa1e 	bne	r2,zero,730 <test_stearing+0x19c>
			while(s_duty2<s_period){
				steering_setting(0, 0, 0, s_duty2, s_period, 2);
				s_duty2 += 10;
				for(i=0;i<2550;i++); //delay
			}
			while(s_duty2>0){
     748:	e0bffc17 	ldw	r2,-16(fp)
     74c:	103fea1e 	bne	r2,zero,6f8 <test_stearing+0x164>
				steering_setting(0, 0, 0, s_duty2, s_period, 2);
				s_duty2 -= 10;
				for(i=0;i<2550;i++); //delay
			}
		}
     750:	003fd006 	br	694 <test_stearing+0x100>
	}
	return;
     754:	0001883a 	nop
}
     758:	e037883a 	mov	sp,fp
     75c:	dfc00117 	ldw	ra,4(sp)
     760:	df000017 	ldw	fp,0(sp)
     764:	dec00204 	addi	sp,sp,8
     768:	f800283a 	ret

0000076c <test_motor>:

//function to test motor pin (will not terminate)
//test 1: TODO
//test 2: TODO
//test 3: alternate between max value on pin 1 and on pin 2
void test_motor(unsigned int test_type, unsigned long m_period){
     76c:	defff704 	addi	sp,sp,-36
     770:	dfc00815 	stw	ra,32(sp)
     774:	df000715 	stw	fp,28(sp)
     778:	df000704 	addi	fp,sp,28
     77c:	e13ffe15 	stw	r4,-8(fp)
     780:	e17fff15 	stw	r5,-4(fp)
	if(test_type==1){ //test 1
     784:	e0bffe17 	ldw	r2,-8(fp)
     788:	10800060 	cmpeqi	r2,r2,1
     78c:	10006a1e 	bne	r2,zero,938 <test_motor+0x1cc>

	}else if(test_type==2){//test 2
     790:	e0bffe17 	ldw	r2,-8(fp)
     794:	108000a0 	cmpeqi	r2,r2,2
     798:	1000671e 	bne	r2,zero,938 <test_motor+0x1cc>

	}else if(test_type==3){//test 3
     79c:	e0bffe17 	ldw	r2,-8(fp)
     7a0:	108000d8 	cmpnei	r2,r2,3
     7a4:	1000641e 	bne	r2,zero,938 <test_motor+0x1cc>
		unsigned long m_duty1 = 0;
     7a8:	e03ffb15 	stw	zero,-20(fp)
		unsigned long m_duty2 = 0;
     7ac:	e03ffc15 	stw	zero,-16(fp)
		unsigned int i = 0;
     7b0:	e03ffd15 	stw	zero,-12(fp)
		while(1){
			//drive forward
			while(m_duty1<m_period){
     7b4:	00001406 	br	808 <test_motor+0x9c>
				motor_setting(0, m_duty1, 0, m_duty2, m_period, 3);
     7b8:	e0bfff17 	ldw	r2,-4(fp)
     7bc:	d8800015 	stw	r2,0(sp)
     7c0:	008000c4 	movi	r2,3
     7c4:	d8800115 	stw	r2,4(sp)
     7c8:	0009883a 	mov	r4,zero
     7cc:	e17ffb17 	ldw	r5,-20(fp)
     7d0:	000d883a 	mov	r6,zero
     7d4:	e1fffc17 	ldw	r7,-16(fp)
     7d8:	00004b00 	call	4b0 <motor_setting>
				m_duty1 += 10;
     7dc:	e0bffb17 	ldw	r2,-20(fp)
     7e0:	10800284 	addi	r2,r2,10
     7e4:	e0bffb15 	stw	r2,-20(fp)
				for(i=0;i<2550;i++); //delay
     7e8:	e03ffd15 	stw	zero,-12(fp)
     7ec:	00000306 	br	7fc <test_motor+0x90>
     7f0:	e0bffd17 	ldw	r2,-12(fp)
     7f4:	10800044 	addi	r2,r2,1
     7f8:	e0bffd15 	stw	r2,-12(fp)
     7fc:	e0bffd17 	ldw	r2,-12(fp)
     800:	10827db0 	cmpltui	r2,r2,2550
     804:	103ffa1e 	bne	r2,zero,7f0 <test_motor+0x84>
		unsigned long m_duty1 = 0;
		unsigned long m_duty2 = 0;
		unsigned int i = 0;
		while(1){
			//drive forward
			while(m_duty1<m_period){
     808:	e0fffb17 	ldw	r3,-20(fp)
     80c:	e0bfff17 	ldw	r2,-4(fp)
     810:	18bfe936 	bltu	r3,r2,7b8 <test_motor+0x4c>
				motor_setting(0, m_duty1, 0, m_duty2, m_period, 3);
				m_duty1 += 10;
				for(i=0;i<2550;i++); //delay
			}
			while(m_duty1>0){
     814:	00001406 	br	868 <test_motor+0xfc>
				motor_setting(0, m_duty1, 0, m_duty2, m_period, 3);
     818:	e0bfff17 	ldw	r2,-4(fp)
     81c:	d8800015 	stw	r2,0(sp)
     820:	008000c4 	movi	r2,3
     824:	d8800115 	stw	r2,4(sp)
     828:	0009883a 	mov	r4,zero
     82c:	e17ffb17 	ldw	r5,-20(fp)
     830:	000d883a 	mov	r6,zero
     834:	e1fffc17 	ldw	r7,-16(fp)
     838:	00004b00 	call	4b0 <motor_setting>
				m_duty1 -= 10;
     83c:	e0bffb17 	ldw	r2,-20(fp)
     840:	10bffd84 	addi	r2,r2,-10
     844:	e0bffb15 	stw	r2,-20(fp)
				for(i=0;i<2550;i++); //delay
     848:	e03ffd15 	stw	zero,-12(fp)
     84c:	00000306 	br	85c <test_motor+0xf0>
     850:	e0bffd17 	ldw	r2,-12(fp)
     854:	10800044 	addi	r2,r2,1
     858:	e0bffd15 	stw	r2,-12(fp)
     85c:	e0bffd17 	ldw	r2,-12(fp)
     860:	10827db0 	cmpltui	r2,r2,2550
     864:	103ffa1e 	bne	r2,zero,850 <test_motor+0xe4>
			while(m_duty1<m_period){
				motor_setting(0, m_duty1, 0, m_duty2, m_period, 3);
				m_duty1 += 10;
				for(i=0;i<2550;i++); //delay
			}
			while(m_duty1>0){
     868:	e0bffb17 	ldw	r2,-20(fp)
     86c:	103fea1e 	bne	r2,zero,818 <test_motor+0xac>
				m_duty1 -= 10;
				for(i=0;i<2550;i++); //delay
			}

			//drive backwards
			m_duty1 = 0;
     870:	e03ffb15 	stw	zero,-20(fp)
			while(m_duty2<m_period){
     874:	00001406 	br	8c8 <test_motor+0x15c>
				motor_setting(0, m_duty1, 0, m_duty2, m_period, 3);
     878:	e0bfff17 	ldw	r2,-4(fp)
     87c:	d8800015 	stw	r2,0(sp)
     880:	008000c4 	movi	r2,3
     884:	d8800115 	stw	r2,4(sp)
     888:	0009883a 	mov	r4,zero
     88c:	e17ffb17 	ldw	r5,-20(fp)
     890:	000d883a 	mov	r6,zero
     894:	e1fffc17 	ldw	r7,-16(fp)
     898:	00004b00 	call	4b0 <motor_setting>
				m_duty2 += 10;
     89c:	e0bffc17 	ldw	r2,-16(fp)
     8a0:	10800284 	addi	r2,r2,10
     8a4:	e0bffc15 	stw	r2,-16(fp)
				for(i=0;i<2550;i++); //delay
     8a8:	e03ffd15 	stw	zero,-12(fp)
     8ac:	00000306 	br	8bc <test_motor+0x150>
     8b0:	e0bffd17 	ldw	r2,-12(fp)
     8b4:	10800044 	addi	r2,r2,1
     8b8:	e0bffd15 	stw	r2,-12(fp)
     8bc:	e0bffd17 	ldw	r2,-12(fp)
     8c0:	10827db0 	cmpltui	r2,r2,2550
     8c4:	103ffa1e 	bne	r2,zero,8b0 <test_motor+0x144>
				for(i=0;i<2550;i++); //delay
			}

			//drive backwards
			m_duty1 = 0;
			while(m_duty2<m_period){
     8c8:	e0fffc17 	ldw	r3,-16(fp)
     8cc:	e0bfff17 	ldw	r2,-4(fp)
     8d0:	18bfe936 	bltu	r3,r2,878 <test_motor+0x10c>
				motor_setting(0, m_duty1, 0, m_duty2, m_period, 3);
				m_duty2 += 10;
				for(i=0;i<2550;i++); //delay
			}
			while(m_duty2>0){
     8d4:	00001406 	br	928 <test_motor+0x1bc>
				motor_setting(0, m_duty1, 0, m_duty2, m_period, 3);
     8d8:	e0bfff17 	ldw	r2,-4(fp)
     8dc:	d8800015 	stw	r2,0(sp)
     8e0:	008000c4 	movi	r2,3
     8e4:	d8800115 	stw	r2,4(sp)
     8e8:	0009883a 	mov	r4,zero
     8ec:	e17ffb17 	ldw	r5,-20(fp)
     8f0:	000d883a 	mov	r6,zero
     8f4:	e1fffc17 	ldw	r7,-16(fp)
     8f8:	00004b00 	call	4b0 <motor_setting>
				m_duty2 -= 10;
     8fc:	e0bffc17 	ldw	r2,-16(fp)
     900:	10bffd84 	addi	r2,r2,-10
     904:	e0bffc15 	stw	r2,-16(fp)
				for(i=0;i<2550;i++); //delay
     908:	e03ffd15 	stw	zero,-12(fp)
     90c:	00000306 	br	91c <test_motor+0x1b0>
     910:	e0bffd17 	ldw	r2,-12(fp)
     914:	10800044 	addi	r2,r2,1
     918:	e0bffd15 	stw	r2,-12(fp)
     91c:	e0bffd17 	ldw	r2,-12(fp)
     920:	10827db0 	cmpltui	r2,r2,2550
     924:	103ffa1e 	bne	r2,zero,910 <test_motor+0x1a4>
			while(m_duty2<m_period){
				motor_setting(0, m_duty1, 0, m_duty2, m_period, 3);
				m_duty2 += 10;
				for(i=0;i<2550;i++); //delay
			}
			while(m_duty2>0){
     928:	e0bffc17 	ldw	r2,-16(fp)
     92c:	103fea1e 	bne	r2,zero,8d8 <test_motor+0x16c>
				motor_setting(0, m_duty1, 0, m_duty2, m_period, 3);
				m_duty2 -= 10;
				for(i=0;i<2550;i++); //delay
			}
			m_duty2 = 0;
     930:	e03ffc15 	stw	zero,-16(fp)
		}
     934:	003f9f06 	br	7b4 <test_motor+0x48>
	}
	return;
     938:	0001883a 	nop
}
     93c:	e037883a 	mov	sp,fp
     940:	dfc00117 	ldw	ra,4(sp)
     944:	df000017 	ldw	fp,0(sp)
     948:	dec00204 	addi	sp,sp,8
     94c:	f800283a 	ret

00000950 <steering_setting>:
 */

#include "steering_setting.h"

void steering_setting(unsigned long phase1, unsigned long duty1,unsigned long phase2, unsigned long duty2,
		unsigned long period,unsigned long enable){
     950:	defff504 	addi	sp,sp,-44
     954:	df000a15 	stw	fp,40(sp)
     958:	df000a04 	addi	fp,sp,40
     95c:	e13ffc15 	stw	r4,-16(fp)
     960:	e17ffd15 	stw	r5,-12(fp)
     964:	e1bffe15 	stw	r6,-8(fp)
     968:	e1ffff15 	stw	r7,-4(fp)

	unsigned long * pwm_en= (unsigned long *)STEERING_PWM_EN;
     96c:	00808074 	movhi	r2,513
     970:	10a8a804 	addi	r2,r2,-23904
     974:	e0bff615 	stw	r2,-40(fp)
	unsigned long * pwm_period=(unsigned long *)STEERING_PWM_PERIOD;
     978:	00808074 	movhi	r2,513
     97c:	10a8a904 	addi	r2,r2,-23900
     980:	e0bff715 	stw	r2,-36(fp)
	unsigned long * pwm_phase1=(unsigned long *)STEERING_PWM_PHASE1;
     984:	00808074 	movhi	r2,513
     988:	10a8ac04 	addi	r2,r2,-23888
     98c:	e0bff815 	stw	r2,-32(fp)
	unsigned long * pwm_phase2=(unsigned long *)STEERING_PWM_PHASE2;
     990:	00808074 	movhi	r2,513
     994:	10a8ad04 	addi	r2,r2,-23884
     998:	e0bff915 	stw	r2,-28(fp)
	unsigned long * pwm_duty1=(unsigned long *)STEERING_PWM_DUTY1;
     99c:	00808074 	movhi	r2,513
     9a0:	10a8aa04 	addi	r2,r2,-23896
     9a4:	e0bffa15 	stw	r2,-24(fp)
	unsigned long * pwm_duty2=(unsigned long *)STEERING_PWM_DUTY2;
     9a8:	00808074 	movhi	r2,513
     9ac:	10a8ab04 	addi	r2,r2,-23892
     9b0:	e0bffb15 	stw	r2,-20(fp)

	* pwm_en=enable;
     9b4:	e0bff617 	ldw	r2,-40(fp)
     9b8:	e0c00217 	ldw	r3,8(fp)
     9bc:	10c00015 	stw	r3,0(r2)
	* pwm_period=period;
     9c0:	e0bff717 	ldw	r2,-36(fp)
     9c4:	e0c00117 	ldw	r3,4(fp)
     9c8:	10c00015 	stw	r3,0(r2)
	* pwm_phase1=phase1;
     9cc:	e0bff817 	ldw	r2,-32(fp)
     9d0:	e0fffc17 	ldw	r3,-16(fp)
     9d4:	10c00015 	stw	r3,0(r2)
	* pwm_phase2=phase2;
     9d8:	e0bff917 	ldw	r2,-28(fp)
     9dc:	e0fffe17 	ldw	r3,-8(fp)
     9e0:	10c00015 	stw	r3,0(r2)
	* pwm_duty1=duty1;
     9e4:	e0bffa17 	ldw	r2,-24(fp)
     9e8:	e0fffd17 	ldw	r3,-12(fp)
     9ec:	10c00015 	stw	r3,0(r2)
	* pwm_duty2=duty2;
     9f0:	e0bffb17 	ldw	r2,-20(fp)
     9f4:	e0ffff17 	ldw	r3,-4(fp)
     9f8:	10c00015 	stw	r3,0(r2)
}
     9fc:	e037883a 	mov	sp,fp
     a00:	df000017 	ldw	fp,0(sp)
     a04:	dec00104 	addi	sp,sp,4
     a08:	f800283a 	ret

00000a0c <steering_set_level>:

//possible levels are from -7 to 7
void steering_set_level(char level){
     a0c:	defff804 	addi	sp,sp,-32
     a10:	dfc00715 	stw	ra,28(sp)
     a14:	df000615 	stw	fp,24(sp)
     a18:	df000604 	addi	fp,sp,24
     a1c:	2005883a 	mov	r2,r4
     a20:	e0bfff05 	stb	r2,-4(fp)
	unsigned long period = 0x186A;
     a24:	00861a84 	movi	r2,6250
     a28:	e0bffe15 	stw	r2,-8(fp)
	unsigned long phase1 = 0;
     a2c:	e03ffc15 	stw	zero,-16(fp)
	unsigned long phase2 = 0;
     a30:	e03ffd15 	stw	zero,-12(fp)
	switch(level){
     a34:	e0bfff07 	ldb	r2,-4(fp)
     a38:	108001c4 	addi	r2,r2,7
     a3c:	10c003e8 	cmpgeui	r3,r2,15
     a40:	1800501e 	bne	r3,zero,b84 <steering_set_level+0x178>
     a44:	100690ba 	slli	r3,r2,2
     a48:	00800034 	movhi	r2,0
     a4c:	10829704 	addi	r2,r2,2652
     a50:	1885883a 	add	r2,r3,r2
     a54:	10800017 	ldw	r2,0(r2)
     a58:	1000683a 	jmp	r2
     a5c:	00000a98 	cmpnei	zero,zero,42
     a60:	00000aa8 	cmpgeui	zero,zero,42
     a64:	00000ab8 	rdprs	zero,zero,42
     a68:	00000ac8 	cmpgei	zero,zero,43
     a6c:	00000ad8 	cmpnei	zero,zero,43
     a70:	00000ae8 	cmpgeui	zero,zero,43
     a74:	00000af8 	rdprs	zero,zero,43
     a78:	00000b08 	cmpgei	zero,zero,44
     a7c:	00000b74 	movhi	zero,45
     a80:	00000b64 	muli	zero,zero,45
     a84:	00000b54 	movui	zero,45
     a88:	00000b44 	movi	zero,45
     a8c:	00000b34 	movhi	zero,44
     a90:	00000b24 	muli	zero,zero,44
     a94:	00000b14 	movui	zero,44
	case -7:phase1 = 0x186A;
     a98:	00861a84 	movi	r2,6250
     a9c:	e0bffc15 	stw	r2,-16(fp)
			phase2 = 0; break;
     aa0:	e03ffd15 	stw	zero,-12(fp)
     aa4:	00003906 	br	b8c <steering_set_level+0x180>
	case -6:phase1 = 5357;
     aa8:	00853b44 	movi	r2,5357
     aac:	e0bffc15 	stw	r2,-16(fp)
			phase2 = 0; break;
     ab0:	e03ffd15 	stw	zero,-12(fp)
     ab4:	00003506 	br	b8c <steering_set_level+0x180>
	case -5:phase1 = 4464;
     ab8:	00845c04 	movi	r2,4464
     abc:	e0bffc15 	stw	r2,-16(fp)
			phase2 = 0; break;
     ac0:	e03ffd15 	stw	zero,-12(fp)
     ac4:	00003106 	br	b8c <steering_set_level+0x180>
	case -4:phase1 = 3571;
     ac8:	00837cc4 	movi	r2,3571
     acc:	e0bffc15 	stw	r2,-16(fp)
			phase2 = 0; break;
     ad0:	e03ffd15 	stw	zero,-12(fp)
     ad4:	00002d06 	br	b8c <steering_set_level+0x180>
	case -3:phase1 = 2679;
     ad8:	00829dc4 	movi	r2,2679
     adc:	e0bffc15 	stw	r2,-16(fp)
			phase2 = 0; break;
     ae0:	e03ffd15 	stw	zero,-12(fp)
     ae4:	00002906 	br	b8c <steering_set_level+0x180>
	case -2:phase1 = 1786;
     ae8:	0081be84 	movi	r2,1786
     aec:	e0bffc15 	stw	r2,-16(fp)
			phase2 = 0; break;
     af0:	e03ffd15 	stw	zero,-12(fp)
     af4:	00002506 	br	b8c <steering_set_level+0x180>
	case -1:phase1 = 893;
     af8:	0080df44 	movi	r2,893
     afc:	e0bffc15 	stw	r2,-16(fp)
			phase2 = 0; break;
     b00:	e03ffd15 	stw	zero,-12(fp)
     b04:	00002106 	br	b8c <steering_set_level+0x180>
	case 0: phase1 = 0;
     b08:	e03ffc15 	stw	zero,-16(fp)
			phase2 = 0; break;
     b0c:	e03ffd15 	stw	zero,-12(fp)
     b10:	00001e06 	br	b8c <steering_set_level+0x180>
	case 7: phase2 = 0x186A;
     b14:	00861a84 	movi	r2,6250
     b18:	e0bffd15 	stw	r2,-12(fp)
			phase1 = 0; break;
     b1c:	e03ffc15 	stw	zero,-16(fp)
     b20:	00001a06 	br	b8c <steering_set_level+0x180>
	case 6: phase2 = 5357;
     b24:	00853b44 	movi	r2,5357
     b28:	e0bffd15 	stw	r2,-12(fp)
			phase1 = 0; break;
     b2c:	e03ffc15 	stw	zero,-16(fp)
     b30:	00001606 	br	b8c <steering_set_level+0x180>
	case 5: phase2 = 4464;
     b34:	00845c04 	movi	r2,4464
     b38:	e0bffd15 	stw	r2,-12(fp)
			phase1 = 0; break;
     b3c:	e03ffc15 	stw	zero,-16(fp)
     b40:	00001206 	br	b8c <steering_set_level+0x180>
	case 4: phase2 = 3571;
     b44:	00837cc4 	movi	r2,3571
     b48:	e0bffd15 	stw	r2,-12(fp)
			phase1 = 0; break;
     b4c:	e03ffc15 	stw	zero,-16(fp)
     b50:	00000e06 	br	b8c <steering_set_level+0x180>
	case 3: phase2 = 2679;
     b54:	00829dc4 	movi	r2,2679
     b58:	e0bffd15 	stw	r2,-12(fp)
			phase1 = 0; break;
     b5c:	e03ffc15 	stw	zero,-16(fp)
     b60:	00000a06 	br	b8c <steering_set_level+0x180>
	case 2: phase2 = 1786;
     b64:	0081be84 	movi	r2,1786
     b68:	e0bffd15 	stw	r2,-12(fp)
			phase1 = 0; break;
     b6c:	e03ffc15 	stw	zero,-16(fp)
     b70:	00000606 	br	b8c <steering_set_level+0x180>
	case 1: phase2 = 893;
     b74:	0080df44 	movi	r2,893
     b78:	e0bffd15 	stw	r2,-12(fp)
			phase1 = 0; break;
     b7c:	e03ffc15 	stw	zero,-16(fp)
     b80:	00000206 	br	b8c <steering_set_level+0x180>
	default:phase1 = 0;
     b84:	e03ffc15 	stw	zero,-16(fp)
			phase2 = 0;
     b88:	e03ffd15 	stw	zero,-12(fp)
	}
	steering_setting(0, phase1, 0, phase2, period, 3);
     b8c:	e0bffe17 	ldw	r2,-8(fp)
     b90:	d8800015 	stw	r2,0(sp)
     b94:	008000c4 	movi	r2,3
     b98:	d8800115 	stw	r2,4(sp)
     b9c:	0009883a 	mov	r4,zero
     ba0:	e17ffc17 	ldw	r5,-16(fp)
     ba4:	000d883a 	mov	r6,zero
     ba8:	e1fffd17 	ldw	r7,-12(fp)
     bac:	00009500 	call	950 <steering_setting>
}
     bb0:	e037883a 	mov	sp,fp
     bb4:	dfc00117 	ldw	ra,4(sp)
     bb8:	df000017 	ldw	fp,0(sp)
     bbc:	dec00204 	addi	sp,sp,8
     bc0:	f800283a 	ret

00000bc4 <uart_init>:

  Remarks:
    None
  ***************************************************************************/
void uart_init(long Address, unsigned char flag)
{
     bc4:	defffd04 	addi	sp,sp,-12
     bc8:	df000215 	stw	fp,8(sp)
     bcc:	df000204 	addi	fp,sp,8
     bd0:	e13ffe15 	stw	r4,-8(fp)
     bd4:	2805883a 	mov	r2,r5
     bd8:	e0bfff05 	stb	r2,-4(fp)
	IOWR_ALTERA_AVALON_UART_CONTROL(Address, flag);
     bdc:	e0bffe17 	ldw	r2,-8(fp)
     be0:	10800304 	addi	r2,r2,12
     be4:	1007883a 	mov	r3,r2
     be8:	e0bfff03 	ldbu	r2,-4(fp)
     bec:	18800035 	stwio	r2,0(r3)
    IOWR_ALTERA_AVALON_UART_STATUS(Address, 0x00);
     bf0:	e0bffe17 	ldw	r2,-8(fp)
     bf4:	10800204 	addi	r2,r2,8
     bf8:	0007883a 	mov	r3,zero
     bfc:	10c00035 	stwio	r3,0(r2)
}
     c00:	e037883a 	mov	sp,fp
     c04:	df000017 	ldw	fp,0(sp)
     c08:	dec00104 	addi	sp,sp,4
     c0c:	f800283a 	ret

00000c10 <uart_send_byte>:

  Remarks:
    None
  ***************************************************************************/
void uart_send_byte(long Address, unsigned char data)
{
     c10:	defffc04 	addi	sp,sp,-16
     c14:	df000315 	stw	fp,12(sp)
     c18:	df000304 	addi	fp,sp,12
     c1c:	e13ffe15 	stw	r4,-8(fp)
     c20:	2805883a 	mov	r2,r5
     c24:	e0bfff05 	stb	r2,-4(fp)
	unsigned int status;
    IOWR_ALTERA_AVALON_UART_TXDATA(Address,data);
     c28:	e0bffe17 	ldw	r2,-8(fp)
     c2c:	10800104 	addi	r2,r2,4
     c30:	1007883a 	mov	r3,r2
     c34:	e0bfff03 	ldbu	r2,-4(fp)
     c38:	18800035 	stwio	r2,0(r3)
    status=IORD_ALTERA_AVALON_UART_STATUS(Address);
     c3c:	e0bffe17 	ldw	r2,-8(fp)
     c40:	10800204 	addi	r2,r2,8
     c44:	10800037 	ldwio	r2,0(r2)
     c48:	e0bffd15 	stw	r2,-12(fp)
    while(!(status&0x0040))
     c4c:	00000406 	br	c60 <uart_send_byte+0x50>
    {
    	//printf("Status in send is: %i\n", status);
    	status=IORD_ALTERA_AVALON_UART_STATUS(Address);
     c50:	e0bffe17 	ldw	r2,-8(fp)
     c54:	10800204 	addi	r2,r2,8
     c58:	10800037 	ldwio	r2,0(r2)
     c5c:	e0bffd15 	stw	r2,-12(fp)
void uart_send_byte(long Address, unsigned char data)
{
	unsigned int status;
    IOWR_ALTERA_AVALON_UART_TXDATA(Address,data);
    status=IORD_ALTERA_AVALON_UART_STATUS(Address);
    while(!(status&0x0040))
     c60:	e0bffd17 	ldw	r2,-12(fp)
     c64:	1080100c 	andi	r2,r2,64
     c68:	103ff926 	beq	r2,zero,c50 <uart_send_byte+0x40>
    {
    	//printf("Status in send is: %i\n", status);
    	status=IORD_ALTERA_AVALON_UART_STATUS(Address);
    }
}
     c6c:	e037883a 	mov	sp,fp
     c70:	df000017 	ldw	fp,0(sp)
     c74:	dec00104 	addi	sp,sp,4
     c78:	f800283a 	ret

00000c7c <uart_receive_byte>:

  Remarks:
    None
  ***************************************************************************/
unsigned char uart_receive_byte(long Address)
{
     c7c:	defffc04 	addi	sp,sp,-16
     c80:	df000315 	stw	fp,12(sp)
     c84:	df000304 	addi	fp,sp,12
     c88:	e13fff15 	stw	r4,-4(fp)
	unsigned int  status;
	unsigned char res;
    status=IORD_ALTERA_AVALON_UART_STATUS(Address);
     c8c:	e0bfff17 	ldw	r2,-4(fp)
     c90:	10800204 	addi	r2,r2,8
     c94:	10800037 	ldwio	r2,0(r2)
     c98:	e0bffd15 	stw	r2,-12(fp)
    while(!(status&0x0080))
     c9c:	00000406 	br	cb0 <uart_receive_byte+0x34>
    {
    	//printf("Status in receive is: %i\n", status);
    	status=IORD_ALTERA_AVALON_UART_STATUS(Address);
     ca0:	e0bfff17 	ldw	r2,-4(fp)
     ca4:	10800204 	addi	r2,r2,8
     ca8:	10800037 	ldwio	r2,0(r2)
     cac:	e0bffd15 	stw	r2,-12(fp)
unsigned char uart_receive_byte(long Address)
{
	unsigned int  status;
	unsigned char res;
    status=IORD_ALTERA_AVALON_UART_STATUS(Address);
    while(!(status&0x0080))
     cb0:	e0bffd17 	ldw	r2,-12(fp)
     cb4:	1080200c 	andi	r2,r2,128
     cb8:	103ff926 	beq	r2,zero,ca0 <uart_receive_byte+0x24>
    {
    	//printf("Status in receive is: %i\n", status);
    	status=IORD_ALTERA_AVALON_UART_STATUS(Address);
    }
    res=IORD_ALTERA_AVALON_UART_RXDATA(Address);
     cbc:	e0bfff17 	ldw	r2,-4(fp)
     cc0:	10800037 	ldwio	r2,0(r2)
     cc4:	e0bffe05 	stb	r2,-8(fp)
    return res;
     cc8:	e0bffe03 	ldbu	r2,-8(fp)
}
     ccc:	e037883a 	mov	sp,fp
     cd0:	df000017 	ldw	fp,0(sp)
     cd4:	dec00104 	addi	sp,sp,4
     cd8:	f800283a 	ret

00000cdc <ultrasound_init>:

  Remarks:
    None
  ***************************************************************************/
void ultrasound_init(long Address)
{
     cdc:	defffd04 	addi	sp,sp,-12
     ce0:	dfc00215 	stw	ra,8(sp)
     ce4:	df000115 	stw	fp,4(sp)
     ce8:	df000104 	addi	fp,sp,4
     cec:	e13fff15 	stw	r4,-4(fp)
	uart_init(Address, 0x00);
     cf0:	e13fff17 	ldw	r4,-4(fp)
     cf4:	000b883a 	mov	r5,zero
     cf8:	0000bc40 	call	bc4 <uart_init>
}
     cfc:	e037883a 	mov	sp,fp
     d00:	dfc00117 	ldw	ra,4(sp)
     d04:	df000017 	ldw	fp,0(sp)
     d08:	dec00204 	addi	sp,sp,8
     d0c:	f800283a 	ret

00000d10 <ultrasound_read>:

  Remarks:
    Distance in meter
  ***************************************************************************/
unsigned int ultrasound_read(long Address)
{
     d10:	defffb04 	addi	sp,sp,-20
     d14:	dfc00415 	stw	ra,16(sp)
     d18:	df000315 	stw	fp,12(sp)
     d1c:	df000304 	addi	fp,sp,12
     d20:	e13fff15 	stw	r4,-4(fp)
	unsigned int i;
	unsigned char res_l, res_h;
	uart_send_byte(Address, 0xe8);
     d24:	e13fff17 	ldw	r4,-4(fp)
     d28:	01403a04 	movi	r5,232
     d2c:	0000c100 	call	c10 <uart_send_byte>

	for (i = 0; i < 2000; i++); //delay
     d30:	e03ffd15 	stw	zero,-12(fp)
     d34:	00000306 	br	d44 <ultrasound_read+0x34>
     d38:	e0bffd17 	ldw	r2,-12(fp)
     d3c:	10800044 	addi	r2,r2,1
     d40:	e0bffd15 	stw	r2,-12(fp)
     d44:	e0bffd17 	ldw	r2,-12(fp)
     d48:	1081f430 	cmpltui	r2,r2,2000
     d4c:	103ffa1e 	bne	r2,zero,d38 <ultrasound_read+0x28>

	uart_send_byte(Address, 0x02);
     d50:	e13fff17 	ldw	r4,-4(fp)
     d54:	01400084 	movi	r5,2
     d58:	0000c100 	call	c10 <uart_send_byte>

	for (i = 0; i < 2000; i++); //delay
     d5c:	e03ffd15 	stw	zero,-12(fp)
     d60:	00000306 	br	d70 <ultrasound_read+0x60>
     d64:	e0bffd17 	ldw	r2,-12(fp)
     d68:	10800044 	addi	r2,r2,1
     d6c:	e0bffd15 	stw	r2,-12(fp)
     d70:	e0bffd17 	ldw	r2,-12(fp)
     d74:	1081f430 	cmpltui	r2,r2,2000
     d78:	103ffa1e 	bne	r2,zero,d64 <ultrasound_read+0x54>

	uart_send_byte(Address, 0x0a); //0x0a -> range (0m-1m)
     d7c:	e13fff17 	ldw	r4,-4(fp)
     d80:	01400284 	movi	r5,10
     d84:	0000c100 	call	c10 <uart_send_byte>

	res_h = uart_receive_byte(Address);
     d88:	e13fff17 	ldw	r4,-4(fp)
     d8c:	0000c7c0 	call	c7c <uart_receive_byte>
     d90:	e0bffe05 	stb	r2,-8(fp)

	//for (i = 0; i < 1000; i++); //delay

	res_l = uart_receive_byte(Address);
     d94:	e13fff17 	ldw	r4,-4(fp)
     d98:	0000c7c0 	call	c7c <uart_receive_byte>
     d9c:	e0bffe45 	stb	r2,-7(fp)

	//printf("res_h is %x, res_l is %x.\n", res_h, res_l);

	return (((unsigned int) res_h) << 8) + res_l;
     da0:	e0bffe03 	ldbu	r2,-8(fp)
     da4:	1006923a 	slli	r3,r2,8
     da8:	e0bffe43 	ldbu	r2,-7(fp)
     dac:	1885883a 	add	r2,r3,r2
}
     db0:	e037883a 	mov	sp,fp
     db4:	dfc00117 	ldw	ra,4(sp)
     db8:	df000017 	ldw	fp,0(sp)
     dbc:	dec00204 	addi	sp,sp,8
     dc0:	f800283a 	ret

00000dc4 <__mulsi3>:
     dc4:	0005883a 	mov	r2,zero
     dc8:	20000726 	beq	r4,zero,de8 <__mulsi3+0x24>
     dcc:	20c0004c 	andi	r3,r4,1
     dd0:	2008d07a 	srli	r4,r4,1
     dd4:	18000126 	beq	r3,zero,ddc <__mulsi3+0x18>
     dd8:	1145883a 	add	r2,r2,r5
     ddc:	294b883a 	add	r5,r5,r5
     de0:	203ffa1e 	bne	r4,zero,dcc <__mulsi3+0x8>
     de4:	f800283a 	ret
     de8:	f800283a 	ret

00000dec <__divsf3>:
     dec:	defff504 	addi	sp,sp,-44
     df0:	dd000515 	stw	r20,20(sp)
     df4:	2028d5fa 	srli	r20,r4,23
     df8:	dd400615 	stw	r21,24(sp)
     dfc:	202ad7fa 	srli	r21,r4,31
     e00:	00c02034 	movhi	r3,128
     e04:	dcc00415 	stw	r19,16(sp)
     e08:	dc800315 	stw	r18,12(sp)
     e0c:	18ffffc4 	addi	r3,r3,-1
     e10:	dfc00a15 	stw	ra,40(sp)
     e14:	df000915 	stw	fp,36(sp)
     e18:	ddc00815 	stw	r23,32(sp)
     e1c:	dd800715 	stw	r22,28(sp)
     e20:	dc400215 	stw	r17,8(sp)
     e24:	dc000115 	stw	r16,4(sp)
     e28:	a5003fcc 	andi	r20,r20,255
     e2c:	1924703a 	and	r18,r3,r4
     e30:	acc03fcc 	andi	r19,r21,255
     e34:	a0004d26 	beq	r20,zero,f6c <__divsf3+0x180>
     e38:	00803fc4 	movi	r2,255
     e3c:	a0802e26 	beq	r20,r2,ef8 <__divsf3+0x10c>
     e40:	91002034 	orhi	r4,r18,128
     e44:	202490fa 	slli	r18,r4,3
     e48:	a53fe044 	addi	r20,r20,-127
     e4c:	0021883a 	mov	r16,zero
     e50:	002f883a 	mov	r23,zero
     e54:	2804d5fa 	srli	r2,r5,23
     e58:	282cd7fa 	srli	r22,r5,31
     e5c:	00c02034 	movhi	r3,128
     e60:	18ffffc4 	addi	r3,r3,-1
     e64:	10803fcc 	andi	r2,r2,255
     e68:	1962703a 	and	r17,r3,r5
     e6c:	b7003fcc 	andi	fp,r22,255
     e70:	10004526 	beq	r2,zero,f88 <__divsf3+0x19c>
     e74:	00c03fc4 	movi	r3,255
     e78:	10c04026 	beq	r2,r3,f7c <__divsf3+0x190>
     e7c:	88c02034 	orhi	r3,r17,128
     e80:	182290fa 	slli	r17,r3,3
     e84:	10bfe044 	addi	r2,r2,-127
     e88:	0009883a 	mov	r4,zero
     e8c:	2420b03a 	or	r16,r4,r16
     e90:	802090ba 	slli	r16,r16,2
     e94:	01c00034 	movhi	r7,0
     e98:	39c3ae04 	addi	r7,r7,3768
     e9c:	81e1883a 	add	r16,r16,r7
     ea0:	80c00017 	ldw	r3,0(r16)
     ea4:	ad8af03a 	xor	r5,r21,r22
     ea8:	280d883a 	mov	r6,r5
     eac:	a085c83a 	sub	r2,r20,r2
     eb0:	29403fcc 	andi	r5,r5,255
     eb4:	1800683a 	jmp	r3
     eb8:	000010c4 	movi	zero,67
     ebc:	0000106c 	andhi	zero,zero,65
     ec0:	00001090 	cmplti	zero,zero,66
     ec4:	00001058 	cmpnei	zero,zero,65
     ec8:	00001090 	cmplti	zero,zero,66
     ecc:	00000f08 	cmpgei	zero,zero,60
     ed0:	00001090 	cmplti	zero,zero,66
     ed4:	00001058 	cmpnei	zero,zero,65
     ed8:	0000106c 	andhi	zero,zero,65
     edc:	0000106c 	andhi	zero,zero,65
     ee0:	00000f08 	cmpgei	zero,zero,60
     ee4:	00001058 	cmpnei	zero,zero,65
     ee8:	0000115c 	xori	zero,zero,69
     eec:	0000115c 	xori	zero,zero,69
     ef0:	0000115c 	xori	zero,zero,69
     ef4:	0000109c 	xori	zero,zero,66
     ef8:	9000531e 	bne	r18,zero,1048 <__divsf3+0x25c>
     efc:	04000204 	movi	r16,8
     f00:	05c00084 	movi	r23,2
     f04:	003fd306 	br	e54 <__divsf3+0x68>
     f08:	00c02034 	movhi	r3,128
     f0c:	000d883a 	mov	r6,zero
     f10:	18ffffc4 	addi	r3,r3,-1
     f14:	013fffc4 	movi	r4,-1
     f18:	21003fcc 	andi	r4,r4,255
     f1c:	200895fa 	slli	r4,r4,23
     f20:	30803fcc 	andi	r2,r6,255
     f24:	01802034 	movhi	r6,128
     f28:	31bfffc4 	addi	r6,r6,-1
     f2c:	100497fa 	slli	r2,r2,31
     f30:	1986703a 	and	r3,r3,r6
     f34:	1906b03a 	or	r3,r3,r4
     f38:	1884b03a 	or	r2,r3,r2
     f3c:	dfc00a17 	ldw	ra,40(sp)
     f40:	df000917 	ldw	fp,36(sp)
     f44:	ddc00817 	ldw	r23,32(sp)
     f48:	dd800717 	ldw	r22,28(sp)
     f4c:	dd400617 	ldw	r21,24(sp)
     f50:	dd000517 	ldw	r20,20(sp)
     f54:	dcc00417 	ldw	r19,16(sp)
     f58:	dc800317 	ldw	r18,12(sp)
     f5c:	dc400217 	ldw	r17,8(sp)
     f60:	dc000117 	ldw	r16,4(sp)
     f64:	dec00b04 	addi	sp,sp,44
     f68:	f800283a 	ret
     f6c:	90002b1e 	bne	r18,zero,101c <__divsf3+0x230>
     f70:	04000104 	movi	r16,4
     f74:	05c00044 	movi	r23,1
     f78:	003fb606 	br	e54 <__divsf3+0x68>
     f7c:	8800251e 	bne	r17,zero,1014 <__divsf3+0x228>
     f80:	01000084 	movi	r4,2
     f84:	00000206 	br	f90 <__divsf3+0x1a4>
     f88:	88001a1e 	bne	r17,zero,ff4 <__divsf3+0x208>
     f8c:	01000044 	movi	r4,1
     f90:	2420b03a 	or	r16,r4,r16
     f94:	802090ba 	slli	r16,r16,2
     f98:	00c00034 	movhi	r3,0
     f9c:	18c3ed04 	addi	r3,r3,4020
     fa0:	80e1883a 	add	r16,r16,r3
     fa4:	80c00017 	ldw	r3,0(r16)
     fa8:	ad8af03a 	xor	r5,r21,r22
     fac:	a085c83a 	sub	r2,r20,r2
     fb0:	1800683a 	jmp	r3
     fb4:	0000106c 	andhi	zero,zero,65
     fb8:	0000106c 	andhi	zero,zero,65
     fbc:	000011bc 	xorhi	zero,zero,70
     fc0:	00001054 	movui	zero,65
     fc4:	000011bc 	xorhi	zero,zero,70
     fc8:	00000f08 	cmpgei	zero,zero,60
     fcc:	000011bc 	xorhi	zero,zero,70
     fd0:	00001054 	movui	zero,65
     fd4:	0000106c 	andhi	zero,zero,65
     fd8:	0000106c 	andhi	zero,zero,65
     fdc:	00000f08 	cmpgei	zero,zero,60
     fe0:	00001054 	movui	zero,65
     fe4:	0000115c 	xori	zero,zero,69
     fe8:	0000115c 	xori	zero,zero,69
     fec:	0000115c 	xori	zero,zero,69
     ff0:	00001188 	cmpgei	zero,zero,70
     ff4:	8809883a 	mov	r4,r17
     ff8:	000145c0 	call	145c <__clzsi2>
     ffc:	10fffec4 	addi	r3,r2,-5
    1000:	88e2983a 	sll	r17,r17,r3
    1004:	00ffe284 	movi	r3,-118
    1008:	1885c83a 	sub	r2,r3,r2
    100c:	0009883a 	mov	r4,zero
    1010:	003f9e06 	br	e8c <__divsf3+0xa0>
    1014:	010000c4 	movi	r4,3
    1018:	003f9c06 	br	e8c <__divsf3+0xa0>
    101c:	9009883a 	mov	r4,r18
    1020:	d9400015 	stw	r5,0(sp)
    1024:	000145c0 	call	145c <__clzsi2>
    1028:	10fffec4 	addi	r3,r2,-5
    102c:	053fe284 	movi	r20,-118
    1030:	90e4983a 	sll	r18,r18,r3
    1034:	a0a9c83a 	sub	r20,r20,r2
    1038:	0021883a 	mov	r16,zero
    103c:	002f883a 	mov	r23,zero
    1040:	d9400017 	ldw	r5,0(sp)
    1044:	003f8306 	br	e54 <__divsf3+0x68>
    1048:	04000304 	movi	r16,12
    104c:	05c000c4 	movi	r23,3
    1050:	003f8006 	br	e54 <__divsf3+0x68>
    1054:	0023883a 	mov	r17,zero
    1058:	e027883a 	mov	r19,fp
    105c:	202f883a 	mov	r23,r4
    1060:	00c00084 	movi	r3,2
    1064:	980b883a 	mov	r5,r19
    1068:	b8c0501e 	bne	r23,r3,11ac <__divsf3+0x3c0>
    106c:	2980004c 	andi	r6,r5,1
    1070:	013fffc4 	movi	r4,-1
    1074:	0007883a 	mov	r3,zero
    1078:	003fa706 	br	f18 <__divsf3+0x12c>
    107c:	013fe084 	movi	r4,-126
    1080:	2089c83a 	sub	r4,r4,r2
    1084:	00c006c4 	movi	r3,27
    1088:	1900500e 	bge	r3,r4,11cc <__divsf3+0x3e0>
    108c:	9980004c 	andi	r6,r19,1
    1090:	0009883a 	mov	r4,zero
    1094:	0007883a 	mov	r3,zero
    1098:	003f9f06 	br	f18 <__divsf3+0x12c>
    109c:	9080102c 	andhi	r2,r18,64
    10a0:	10000226 	beq	r2,zero,10ac <__divsf3+0x2c0>
    10a4:	8880102c 	andhi	r2,r17,64
    10a8:	10003a26 	beq	r2,zero,1194 <__divsf3+0x3a8>
    10ac:	00802034 	movhi	r2,128
    10b0:	90c01034 	orhi	r3,r18,64
    10b4:	10bfffc4 	addi	r2,r2,-1
    10b8:	a80d883a 	mov	r6,r21
    10bc:	1886703a 	and	r3,r3,r2
    10c0:	003f9406 	br	f14 <__divsf3+0x128>
    10c4:	9006917a 	slli	r3,r18,5
    10c8:	8822917a 	slli	r17,r17,5
    10cc:	1c402936 	bltu	r3,r17,1174 <__divsf3+0x388>
    10d0:	1c47c83a 	sub	r3,r3,r17
    10d4:	2827883a 	mov	r19,r5
    10d8:	01800684 	movi	r6,26
    10dc:	01000044 	movi	r4,1
    10e0:	180f883a 	mov	r7,r3
    10e4:	2109883a 	add	r4,r4,r4
    10e8:	18c7883a 	add	r3,r3,r3
    10ec:	38000116 	blt	r7,zero,10f4 <__divsf3+0x308>
    10f0:	1c400236 	bltu	r3,r17,10fc <__divsf3+0x310>
    10f4:	1c47c83a 	sub	r3,r3,r17
    10f8:	21000054 	ori	r4,r4,1
    10fc:	31bfffc4 	addi	r6,r6,-1
    1100:	303ff71e 	bne	r6,zero,10e0 <__divsf3+0x2f4>
    1104:	1806c03a 	cmpne	r3,r3,zero
    1108:	1922b03a 	or	r17,r3,r4
    110c:	11001fc4 	addi	r4,r2,127
    1110:	013fda0e 	bge	zero,r4,107c <__divsf3+0x290>
    1114:	88c001cc 	andi	r3,r17,7
    1118:	18000426 	beq	r3,zero,112c <__divsf3+0x340>
    111c:	894003cc 	andi	r5,r17,15
    1120:	00c00104 	movi	r3,4
    1124:	28c00126 	beq	r5,r3,112c <__divsf3+0x340>
    1128:	88e3883a 	add	r17,r17,r3
    112c:	88c2002c 	andhi	r3,r17,2048
    1130:	18000426 	beq	r3,zero,1144 <__divsf3+0x358>
    1134:	11002004 	addi	r4,r2,128
    1138:	00be0034 	movhi	r2,63488
    113c:	10bfffc4 	addi	r2,r2,-1
    1140:	88a2703a 	and	r17,r17,r2
    1144:	00803f84 	movi	r2,254
    1148:	1100060e 	bge	r2,r4,1164 <__divsf3+0x378>
    114c:	9980004c 	andi	r6,r19,1
    1150:	013fffc4 	movi	r4,-1
    1154:	0007883a 	mov	r3,zero
    1158:	003f6f06 	br	f18 <__divsf3+0x12c>
    115c:	9023883a 	mov	r17,r18
    1160:	003fbf06 	br	1060 <__divsf3+0x274>
    1164:	880691ba 	slli	r3,r17,6
    1168:	9980004c 	andi	r6,r19,1
    116c:	1806d27a 	srli	r3,r3,9
    1170:	003f6906 	br	f18 <__divsf3+0x12c>
    1174:	10bfffc4 	addi	r2,r2,-1
    1178:	2827883a 	mov	r19,r5
    117c:	018006c4 	movi	r6,27
    1180:	0009883a 	mov	r4,zero
    1184:	003fd606 	br	10e0 <__divsf3+0x2f4>
    1188:	9080102c 	andhi	r2,r18,64
    118c:	0023883a 	mov	r17,zero
    1190:	103fc626 	beq	r2,zero,10ac <__divsf3+0x2c0>
    1194:	00802034 	movhi	r2,128
    1198:	88c01034 	orhi	r3,r17,64
    119c:	10bfffc4 	addi	r2,r2,-1
    11a0:	b00d883a 	mov	r6,r22
    11a4:	1886703a 	and	r3,r3,r2
    11a8:	003f5a06 	br	f14 <__divsf3+0x128>
    11ac:	00c000c4 	movi	r3,3
    11b0:	b8c01c26 	beq	r23,r3,1224 <__divsf3+0x438>
    11b4:	00c00044 	movi	r3,1
    11b8:	b8ffd41e 	bne	r23,r3,110c <__divsf3+0x320>
    11bc:	2980004c 	andi	r6,r5,1
    11c0:	0009883a 	mov	r4,zero
    11c4:	0007883a 	mov	r3,zero
    11c8:	003f5306 	br	f18 <__divsf3+0x12c>
    11cc:	10802784 	addi	r2,r2,158
    11d0:	8884983a 	sll	r2,r17,r2
    11d4:	8908d83a 	srl	r4,r17,r4
    11d8:	1022c03a 	cmpne	r17,r2,zero
    11dc:	8908b03a 	or	r4,r17,r4
    11e0:	208001cc 	andi	r2,r4,7
    11e4:	10000426 	beq	r2,zero,11f8 <__divsf3+0x40c>
    11e8:	20c003cc 	andi	r3,r4,15
    11ec:	00800104 	movi	r2,4
    11f0:	18800126 	beq	r3,r2,11f8 <__divsf3+0x40c>
    11f4:	2089883a 	add	r4,r4,r2
    11f8:	2081002c 	andhi	r2,r4,1024
    11fc:	10000426 	beq	r2,zero,1210 <__divsf3+0x424>
    1200:	9980004c 	andi	r6,r19,1
    1204:	01000044 	movi	r4,1
    1208:	0007883a 	mov	r3,zero
    120c:	003f4206 	br	f18 <__divsf3+0x12c>
    1210:	200691ba 	slli	r3,r4,6
    1214:	9980004c 	andi	r6,r19,1
    1218:	0009883a 	mov	r4,zero
    121c:	1806d27a 	srli	r3,r3,9
    1220:	003f3d06 	br	f18 <__divsf3+0x12c>
    1224:	00802034 	movhi	r2,128
    1228:	88c01034 	orhi	r3,r17,64
    122c:	10bfffc4 	addi	r2,r2,-1
    1230:	9980004c 	andi	r6,r19,1
    1234:	1886703a 	and	r3,r3,r2
    1238:	003f3606 	br	f14 <__divsf3+0x128>

0000123c <__floatunsisf>:
    123c:	defffe04 	addi	sp,sp,-8
    1240:	dc000015 	stw	r16,0(sp)
    1244:	dfc00115 	stw	ra,4(sp)
    1248:	2021883a 	mov	r16,r4
    124c:	20002626 	beq	r4,zero,12e8 <__floatunsisf+0xac>
    1250:	000145c0 	call	145c <__clzsi2>
    1254:	00c02784 	movi	r3,158
    1258:	1887c83a 	sub	r3,r3,r2
    125c:	01002584 	movi	r4,150
    1260:	20c00816 	blt	r4,r3,1284 <__floatunsisf+0x48>
    1264:	01000204 	movi	r4,8
    1268:	2080340e 	bge	r4,r2,133c <__floatunsisf+0x100>
    126c:	10bffe04 	addi	r2,r2,-8
    1270:	8088983a 	sll	r4,r16,r2
    1274:	00802034 	movhi	r2,128
    1278:	10bfffc4 	addi	r2,r2,-1
    127c:	2088703a 	and	r4,r4,r2
    1280:	00001b06 	br	12f0 <__floatunsisf+0xb4>
    1284:	01002644 	movi	r4,153
    1288:	20c02316 	blt	r4,r3,1318 <__floatunsisf+0xdc>
    128c:	01000144 	movi	r4,5
    1290:	2080020e 	bge	r4,r2,129c <__floatunsisf+0x60>
    1294:	113ffec4 	addi	r4,r2,-5
    1298:	8120983a 	sll	r16,r16,r4
    129c:	017f0034 	movhi	r5,64512
    12a0:	297fffc4 	addi	r5,r5,-1
    12a4:	810001cc 	andi	r4,r16,7
    12a8:	814a703a 	and	r5,r16,r5
    12ac:	20000426 	beq	r4,zero,12c0 <__floatunsisf+0x84>
    12b0:	840003cc 	andi	r16,r16,15
    12b4:	01000104 	movi	r4,4
    12b8:	81000126 	beq	r16,r4,12c0 <__floatunsisf+0x84>
    12bc:	290b883a 	add	r5,r5,r4
    12c0:	2901002c 	andhi	r4,r5,1024
    12c4:	20000526 	beq	r4,zero,12dc <__floatunsisf+0xa0>
    12c8:	00c027c4 	movi	r3,159
    12cc:	1887c83a 	sub	r3,r3,r2
    12d0:	00bf0034 	movhi	r2,64512
    12d4:	10bfffc4 	addi	r2,r2,-1
    12d8:	288a703a 	and	r5,r5,r2
    12dc:	280891ba 	slli	r4,r5,6
    12e0:	2008d27a 	srli	r4,r4,9
    12e4:	00000206 	br	12f0 <__floatunsisf+0xb4>
    12e8:	0007883a 	mov	r3,zero
    12ec:	0009883a 	mov	r4,zero
    12f0:	18c03fcc 	andi	r3,r3,255
    12f4:	180695fa 	slli	r3,r3,23
    12f8:	00802034 	movhi	r2,128
    12fc:	10bfffc4 	addi	r2,r2,-1
    1300:	2084703a 	and	r2,r4,r2
    1304:	10c4b03a 	or	r2,r2,r3
    1308:	dfc00117 	ldw	ra,4(sp)
    130c:	dc000017 	ldw	r16,0(sp)
    1310:	dec00204 	addi	sp,sp,8
    1314:	f800283a 	ret
    1318:	01400144 	movi	r5,5
    131c:	110006c4 	addi	r4,r2,27
    1320:	8108983a 	sll	r4,r16,r4
    1324:	288dc83a 	sub	r6,r5,r2
    1328:	81a0d83a 	srl	r16,r16,r6
    132c:	2008c03a 	cmpne	r4,r4,zero
    1330:	2420b03a 	or	r16,r4,r16
    1334:	28bfd90e 	bge	r5,r2,129c <__floatunsisf+0x60>
    1338:	003fd606 	br	1294 <__floatunsisf+0x58>
    133c:	01402034 	movhi	r5,128
    1340:	297fffc4 	addi	r5,r5,-1
    1344:	8148703a 	and	r4,r16,r5
    1348:	003fe906 	br	12f0 <__floatunsisf+0xb4>

0000134c <__extendsfdf2>:
    134c:	200ad5fa 	srli	r5,r4,23
    1350:	defffd04 	addi	sp,sp,-12
    1354:	dc400115 	stw	r17,4(sp)
    1358:	29403fcc 	andi	r5,r5,255
    135c:	29800044 	addi	r6,r5,1
    1360:	04402034 	movhi	r17,128
    1364:	dc000015 	stw	r16,0(sp)
    1368:	8c7fffc4 	addi	r17,r17,-1
    136c:	dfc00215 	stw	ra,8(sp)
    1370:	31803fcc 	andi	r6,r6,255
    1374:	00800044 	movi	r2,1
    1378:	8922703a 	and	r17,r17,r4
    137c:	2020d7fa 	srli	r16,r4,31
    1380:	1180110e 	bge	r2,r6,13c8 <__extendsfdf2+0x7c>
    1384:	880ed0fa 	srli	r7,r17,3
    1388:	8822977a 	slli	r17,r17,29
    138c:	2940e004 	addi	r5,r5,896
    1390:	2941ffcc 	andi	r5,r5,2047
    1394:	280c953a 	slli	r6,r5,20
    1398:	01400434 	movhi	r5,16
    139c:	800697fa 	slli	r3,r16,31
    13a0:	297fffc4 	addi	r5,r5,-1
    13a4:	394a703a 	and	r5,r7,r5
    13a8:	298ab03a 	or	r5,r5,r6
    13ac:	8805883a 	mov	r2,r17
    13b0:	28c6b03a 	or	r3,r5,r3
    13b4:	dfc00217 	ldw	ra,8(sp)
    13b8:	dc400117 	ldw	r17,4(sp)
    13bc:	dc000017 	ldw	r16,0(sp)
    13c0:	dec00304 	addi	sp,sp,12
    13c4:	f800283a 	ret
    13c8:	2800111e 	bne	r5,zero,1410 <__extendsfdf2+0xc4>
    13cc:	88001c26 	beq	r17,zero,1440 <__extendsfdf2+0xf4>
    13d0:	8809883a 	mov	r4,r17
    13d4:	000145c0 	call	145c <__clzsi2>
    13d8:	00c00284 	movi	r3,10
    13dc:	18801b16 	blt	r3,r2,144c <__extendsfdf2+0x100>
    13e0:	01c002c4 	movi	r7,11
    13e4:	388fc83a 	sub	r7,r7,r2
    13e8:	10c00544 	addi	r3,r2,21
    13ec:	89ced83a 	srl	r7,r17,r7
    13f0:	88e2983a 	sll	r17,r17,r3
    13f4:	0180e244 	movi	r6,905
    13f8:	308bc83a 	sub	r5,r6,r2
    13fc:	01800434 	movhi	r6,16
    1400:	31bfffc4 	addi	r6,r6,-1
    1404:	398e703a 	and	r7,r7,r6
    1408:	2941ffcc 	andi	r5,r5,2047
    140c:	003fe006 	br	1390 <__extendsfdf2+0x44>
    1410:	88000826 	beq	r17,zero,1434 <__extendsfdf2+0xe8>
    1414:	880ed0fa 	srli	r7,r17,3
    1418:	00800434 	movhi	r2,16
    141c:	10bfffc4 	addi	r2,r2,-1
    1420:	39c00234 	orhi	r7,r7,8
    1424:	8822977a 	slli	r17,r17,29
    1428:	388e703a 	and	r7,r7,r2
    142c:	0141ffc4 	movi	r5,2047
    1430:	003fd706 	br	1390 <__extendsfdf2+0x44>
    1434:	0141ffc4 	movi	r5,2047
    1438:	000f883a 	mov	r7,zero
    143c:	003fd406 	br	1390 <__extendsfdf2+0x44>
    1440:	000b883a 	mov	r5,zero
    1444:	000f883a 	mov	r7,zero
    1448:	003fd106 	br	1390 <__extendsfdf2+0x44>
    144c:	11fffd44 	addi	r7,r2,-11
    1450:	89ce983a 	sll	r7,r17,r7
    1454:	0023883a 	mov	r17,zero
    1458:	003fe606 	br	13f4 <__extendsfdf2+0xa8>

0000145c <__clzsi2>:
    145c:	00bfffd4 	movui	r2,65535
    1460:	11000b36 	bltu	r2,r4,1490 <__clzsi2+0x34>
    1464:	00803fc4 	movi	r2,255
    1468:	1100122e 	bgeu	r2,r4,14b4 <__clzsi2+0x58>
    146c:	00c00204 	movi	r3,8
    1470:	01400604 	movi	r5,24
    1474:	20c8d83a 	srl	r4,r4,r3
    1478:	00800074 	movhi	r2,1
    147c:	10888604 	addi	r2,r2,8728
    1480:	1109883a 	add	r4,r2,r4
    1484:	20800003 	ldbu	r2,0(r4)
    1488:	2885c83a 	sub	r2,r5,r2
    148c:	f800283a 	ret
    1490:	00804034 	movhi	r2,256
    1494:	10bfffc4 	addi	r2,r2,-1
    1498:	11000336 	bltu	r2,r4,14a8 <__clzsi2+0x4c>
    149c:	00c00404 	movi	r3,16
    14a0:	180b883a 	mov	r5,r3
    14a4:	003ff306 	br	1474 <__clzsi2+0x18>
    14a8:	00c00604 	movi	r3,24
    14ac:	01400204 	movi	r5,8
    14b0:	003ff006 	br	1474 <__clzsi2+0x18>
    14b4:	0007883a 	mov	r3,zero
    14b8:	01400804 	movi	r5,32
    14bc:	003fed06 	br	1474 <__clzsi2+0x18>

000014c0 <_printf_r>:
    14c0:	defffd04 	addi	sp,sp,-12
    14c4:	dfc00015 	stw	ra,0(sp)
    14c8:	d9800115 	stw	r6,4(sp)
    14cc:	d9c00215 	stw	r7,8(sp)
    14d0:	280d883a 	mov	r6,r5
    14d4:	21400217 	ldw	r5,8(r4)
    14d8:	d9c00104 	addi	r7,sp,4
    14dc:	000167c0 	call	167c <___vfprintf_internal_r>
    14e0:	dfc00017 	ldw	ra,0(sp)
    14e4:	dec00304 	addi	sp,sp,12
    14e8:	f800283a 	ret

000014ec <printf>:
    14ec:	defffc04 	addi	sp,sp,-16
    14f0:	dfc00015 	stw	ra,0(sp)
    14f4:	d9400115 	stw	r5,4(sp)
    14f8:	d9800215 	stw	r6,8(sp)
    14fc:	d9c00315 	stw	r7,12(sp)
    1500:	00800074 	movhi	r2,1
    1504:	10913d04 	addi	r2,r2,17652
    1508:	10800017 	ldw	r2,0(r2)
    150c:	200b883a 	mov	r5,r4
    1510:	d9800104 	addi	r6,sp,4
    1514:	11000217 	ldw	r4,8(r2)
    1518:	00036d40 	call	36d4 <__vfprintf_internal>
    151c:	dfc00017 	ldw	ra,0(sp)
    1520:	dec00404 	addi	sp,sp,16
    1524:	f800283a 	ret

00001528 <_puts_r>:
    1528:	defff604 	addi	sp,sp,-40
    152c:	dc000715 	stw	r16,28(sp)
    1530:	2021883a 	mov	r16,r4
    1534:	2809883a 	mov	r4,r5
    1538:	dc400815 	stw	r17,32(sp)
    153c:	dfc00915 	stw	ra,36(sp)
    1540:	2823883a 	mov	r17,r5
    1544:	00015e40 	call	15e4 <strlen>
    1548:	81400217 	ldw	r5,8(r16)
    154c:	11000044 	addi	r4,r2,1
    1550:	d8800115 	stw	r2,4(sp)
    1554:	00800074 	movhi	r2,1
    1558:	2980030b 	ldhu	r6,12(r5)
    155c:	1088c604 	addi	r2,r2,8984
    1560:	d8800215 	stw	r2,8(sp)
    1564:	00800044 	movi	r2,1
    1568:	d8800315 	stw	r2,12(sp)
    156c:	00800084 	movi	r2,2
    1570:	d8800515 	stw	r2,20(sp)
    1574:	dc400015 	stw	r17,0(sp)
    1578:	d9000615 	stw	r4,24(sp)
    157c:	dec00415 	stw	sp,16(sp)
    1580:	3088000c 	andi	r2,r6,8192
    1584:	1000061e 	bne	r2,zero,15a0 <_puts_r+0x78>
    1588:	29001917 	ldw	r4,100(r5)
    158c:	00b7ffc4 	movi	r2,-8193
    1590:	31880014 	ori	r6,r6,8192
    1594:	2084703a 	and	r2,r4,r2
    1598:	2980030d 	sth	r6,12(r5)
    159c:	28801915 	stw	r2,100(r5)
    15a0:	8009883a 	mov	r4,r16
    15a4:	d9800404 	addi	r6,sp,16
    15a8:	0005cb00 	call	5cb0 <__sfvwrite_r>
    15ac:	1000061e 	bne	r2,zero,15c8 <_puts_r+0xa0>
    15b0:	00800284 	movi	r2,10
    15b4:	dfc00917 	ldw	ra,36(sp)
    15b8:	dc400817 	ldw	r17,32(sp)
    15bc:	dc000717 	ldw	r16,28(sp)
    15c0:	dec00a04 	addi	sp,sp,40
    15c4:	f800283a 	ret
    15c8:	00bfffc4 	movi	r2,-1
    15cc:	003ff906 	br	15b4 <_puts_r+0x8c>

000015d0 <puts>:
    15d0:	00800074 	movhi	r2,1
    15d4:	10913d04 	addi	r2,r2,17652
    15d8:	200b883a 	mov	r5,r4
    15dc:	11000017 	ldw	r4,0(r2)
    15e0:	00015281 	jmpi	1528 <_puts_r>

000015e4 <strlen>:
    15e4:	208000cc 	andi	r2,r4,3
    15e8:	10002026 	beq	r2,zero,166c <strlen+0x88>
    15ec:	20800007 	ldb	r2,0(r4)
    15f0:	10002026 	beq	r2,zero,1674 <strlen+0x90>
    15f4:	2005883a 	mov	r2,r4
    15f8:	00000206 	br	1604 <strlen+0x20>
    15fc:	10c00007 	ldb	r3,0(r2)
    1600:	18001826 	beq	r3,zero,1664 <strlen+0x80>
    1604:	10800044 	addi	r2,r2,1
    1608:	10c000cc 	andi	r3,r2,3
    160c:	183ffb1e 	bne	r3,zero,15fc <strlen+0x18>
    1610:	10c00017 	ldw	r3,0(r2)
    1614:	01ffbff4 	movhi	r7,65279
    1618:	39ffbfc4 	addi	r7,r7,-257
    161c:	00ca303a 	nor	r5,zero,r3
    1620:	01a02074 	movhi	r6,32897
    1624:	19c7883a 	add	r3,r3,r7
    1628:	31a02004 	addi	r6,r6,-32640
    162c:	1946703a 	and	r3,r3,r5
    1630:	1986703a 	and	r3,r3,r6
    1634:	1800091e 	bne	r3,zero,165c <strlen+0x78>
    1638:	10800104 	addi	r2,r2,4
    163c:	10c00017 	ldw	r3,0(r2)
    1640:	19cb883a 	add	r5,r3,r7
    1644:	00c6303a 	nor	r3,zero,r3
    1648:	28c6703a 	and	r3,r5,r3
    164c:	1986703a 	and	r3,r3,r6
    1650:	183ff926 	beq	r3,zero,1638 <strlen+0x54>
    1654:	00000106 	br	165c <strlen+0x78>
    1658:	10800044 	addi	r2,r2,1
    165c:	10c00007 	ldb	r3,0(r2)
    1660:	183ffd1e 	bne	r3,zero,1658 <strlen+0x74>
    1664:	1105c83a 	sub	r2,r2,r4
    1668:	f800283a 	ret
    166c:	2005883a 	mov	r2,r4
    1670:	003fe706 	br	1610 <strlen+0x2c>
    1674:	0005883a 	mov	r2,zero
    1678:	f800283a 	ret

0000167c <___vfprintf_internal_r>:
    167c:	deffb604 	addi	sp,sp,-296
    1680:	dfc04915 	stw	ra,292(sp)
    1684:	ddc04715 	stw	r23,284(sp)
    1688:	dd804615 	stw	r22,280(sp)
    168c:	202f883a 	mov	r23,r4
    1690:	282d883a 	mov	r22,r5
    1694:	d9802a15 	stw	r6,168(sp)
    1698:	d9c02d15 	stw	r7,180(sp)
    169c:	df004815 	stw	fp,288(sp)
    16a0:	dd404515 	stw	r21,276(sp)
    16a4:	dd004415 	stw	r20,272(sp)
    16a8:	dcc04315 	stw	r19,268(sp)
    16ac:	dc804215 	stw	r18,264(sp)
    16b0:	dc404115 	stw	r17,260(sp)
    16b4:	dc004015 	stw	r16,256(sp)
    16b8:	00063b00 	call	63b0 <_localeconv_r>
    16bc:	10800017 	ldw	r2,0(r2)
    16c0:	1009883a 	mov	r4,r2
    16c4:	d8803515 	stw	r2,212(sp)
    16c8:	00015e40 	call	15e4 <strlen>
    16cc:	d8803815 	stw	r2,224(sp)
    16d0:	b8000226 	beq	r23,zero,16dc <___vfprintf_internal_r+0x60>
    16d4:	b8800e17 	ldw	r2,56(r23)
    16d8:	1000e226 	beq	r2,zero,1a64 <___vfprintf_internal_r+0x3e8>
    16dc:	b080030b 	ldhu	r2,12(r22)
    16e0:	10c8000c 	andi	r3,r2,8192
    16e4:	1800061e 	bne	r3,zero,1700 <___vfprintf_internal_r+0x84>
    16e8:	b1001917 	ldw	r4,100(r22)
    16ec:	00f7ffc4 	movi	r3,-8193
    16f0:	10880014 	ori	r2,r2,8192
    16f4:	20c6703a 	and	r3,r4,r3
    16f8:	b080030d 	sth	r2,12(r22)
    16fc:	b0c01915 	stw	r3,100(r22)
    1700:	10c0020c 	andi	r3,r2,8
    1704:	1800a826 	beq	r3,zero,19a8 <___vfprintf_internal_r+0x32c>
    1708:	b0c00417 	ldw	r3,16(r22)
    170c:	1800a626 	beq	r3,zero,19a8 <___vfprintf_internal_r+0x32c>
    1710:	1080068c 	andi	r2,r2,26
    1714:	00c00284 	movi	r3,10
    1718:	10c0ab26 	beq	r2,r3,19c8 <___vfprintf_internal_r+0x34c>
    171c:	d8801e04 	addi	r2,sp,120
    1720:	d8c01dc4 	addi	r3,sp,119
    1724:	d9000404 	addi	r4,sp,16
    1728:	05000074 	movhi	r20,1
    172c:	10cbc83a 	sub	r5,r2,r3
    1730:	a508d784 	addi	r20,r20,9054
    1734:	d8802815 	stw	r2,160(sp)
    1738:	d8c02915 	stw	r3,164(sp)
    173c:	d9001e15 	stw	r4,120(sp)
    1740:	d8002015 	stw	zero,128(sp)
    1744:	d8001f15 	stw	zero,124(sp)
    1748:	d8003315 	stw	zero,204(sp)
    174c:	d8003715 	stw	zero,220(sp)
    1750:	d8003915 	stw	zero,228(sp)
    1754:	2011883a 	mov	r8,r4
    1758:	d8003b15 	stw	zero,236(sp)
    175c:	d8003a15 	stw	zero,232(sp)
    1760:	d8002f15 	stw	zero,188(sp)
    1764:	d9403c15 	stw	r5,240(sp)
    1768:	d8c02a17 	ldw	r3,168(sp)
    176c:	18800007 	ldb	r2,0(r3)
    1770:	1001f226 	beq	r2,zero,1f3c <___vfprintf_internal_r+0x8c0>
    1774:	00c00944 	movi	r3,37
    1778:	dc002a17 	ldw	r16,168(sp)
    177c:	10c0021e 	bne	r2,r3,1788 <___vfprintf_internal_r+0x10c>
    1780:	00001606 	br	17dc <___vfprintf_internal_r+0x160>
    1784:	10c08526 	beq	r2,r3,199c <___vfprintf_internal_r+0x320>
    1788:	84000044 	addi	r16,r16,1
    178c:	80800007 	ldb	r2,0(r16)
    1790:	103ffc1e 	bne	r2,zero,1784 <___vfprintf_internal_r+0x108>
    1794:	d9002a17 	ldw	r4,168(sp)
    1798:	8123c83a 	sub	r17,r16,r4
    179c:	88000f26 	beq	r17,zero,17dc <___vfprintf_internal_r+0x160>
    17a0:	d8802a17 	ldw	r2,168(sp)
    17a4:	d8c02017 	ldw	r3,128(sp)
    17a8:	44400115 	stw	r17,4(r8)
    17ac:	40800015 	stw	r2,0(r8)
    17b0:	d8801f17 	ldw	r2,124(sp)
    17b4:	1c47883a 	add	r3,r3,r17
    17b8:	d8c02015 	stw	r3,128(sp)
    17bc:	10800044 	addi	r2,r2,1
    17c0:	d8801f15 	stw	r2,124(sp)
    17c4:	00c001c4 	movi	r3,7
    17c8:	18809416 	blt	r3,r2,1a1c <___vfprintf_internal_r+0x3a0>
    17cc:	42000204 	addi	r8,r8,8
    17d0:	d8c02f17 	ldw	r3,188(sp)
    17d4:	1c47883a 	add	r3,r3,r17
    17d8:	d8c02f15 	stw	r3,188(sp)
    17dc:	80800007 	ldb	r2,0(r16)
    17e0:	10009526 	beq	r2,zero,1a38 <___vfprintf_internal_r+0x3bc>
    17e4:	80800044 	addi	r2,r16,1
    17e8:	84000047 	ldb	r16,1(r16)
    17ec:	0027883a 	mov	r19,zero
    17f0:	0039883a 	mov	fp,zero
    17f4:	dcc02b05 	stb	r19,172(sp)
    17f8:	d8002785 	stb	zero,158(sp)
    17fc:	027fffc4 	movi	r9,-1
    1800:	d8002e15 	stw	zero,184(sp)
    1804:	04401604 	movi	r17,88
    1808:	04800244 	movi	r18,9
    180c:	da002a15 	stw	r8,168(sp)
    1810:	e027883a 	mov	r19,fp
    1814:	17000044 	addi	fp,r2,1
    1818:	80bff804 	addi	r2,r16,-32
    181c:	8882ed36 	bltu	r17,r2,23d4 <___vfprintf_internal_r+0xd58>
    1820:	100490ba 	slli	r2,r2,2
    1824:	01000034 	movhi	r4,0
    1828:	21060e04 	addi	r4,r4,6200
    182c:	1105883a 	add	r2,r2,r4
    1830:	10800017 	ldw	r2,0(r2)
    1834:	1000683a 	jmp	r2
    1838:	0000221c 	xori	zero,zero,136
    183c:	000023d4 	movui	zero,143
    1840:	000023d4 	movui	zero,143
    1844:	00002238 	rdprs	zero,zero,136
    1848:	000023d4 	movui	zero,143
    184c:	000023d4 	movui	zero,143
    1850:	000023d4 	movui	zero,143
    1854:	000023d4 	movui	zero,143
    1858:	000023d4 	movui	zero,143
    185c:	000023d4 	movui	zero,143
    1860:	00002248 	cmpgei	zero,zero,137
    1864:	00002270 	cmpltui	zero,zero,137
    1868:	000023d4 	movui	zero,143
    186c:	00001a70 	cmpltui	zero,zero,105
    1870:	00001a80 	call	1a8 <alt_irq_handler+0xbc>
    1874:	000023d4 	movui	zero,143
    1878:	00001ad0 	cmplti	zero,zero,107
    187c:	00001ae0 	cmpeqi	zero,zero,107
    1880:	00001ae0 	cmpeqi	zero,zero,107
    1884:	00001ae0 	cmpeqi	zero,zero,107
    1888:	00001ae0 	cmpeqi	zero,zero,107
    188c:	00001ae0 	cmpeqi	zero,zero,107
    1890:	00001ae0 	cmpeqi	zero,zero,107
    1894:	00001ae0 	cmpeqi	zero,zero,107
    1898:	00001ae0 	cmpeqi	zero,zero,107
    189c:	00001ae0 	cmpeqi	zero,zero,107
    18a0:	000023d4 	movui	zero,143
    18a4:	000023d4 	movui	zero,143
    18a8:	000023d4 	movui	zero,143
    18ac:	000023d4 	movui	zero,143
    18b0:	000023d4 	movui	zero,143
    18b4:	000023d4 	movui	zero,143
    18b8:	000023d4 	movui	zero,143
    18bc:	000023d4 	movui	zero,143
    18c0:	000023d4 	movui	zero,143
    18c4:	000023d4 	movui	zero,143
    18c8:	00001b24 	muli	zero,zero,108
    18cc:	00001f44 	movi	zero,125
    18d0:	000023d4 	movui	zero,143
    18d4:	00001f44 	movi	zero,125
    18d8:	000023d4 	movui	zero,143
    18dc:	000023d4 	movui	zero,143
    18e0:	000023d4 	movui	zero,143
    18e4:	000023d4 	movui	zero,143
    18e8:	00001fec 	andhi	zero,zero,127
    18ec:	000023d4 	movui	zero,143
    18f0:	000023d4 	movui	zero,143
    18f4:	00001ffc 	xorhi	zero,zero,127
    18f8:	000023d4 	movui	zero,143
    18fc:	000023d4 	movui	zero,143
    1900:	000023d4 	movui	zero,143
    1904:	000023d4 	movui	zero,143
    1908:	000023d4 	movui	zero,143
    190c:	0000203c 	xorhi	zero,zero,128
    1910:	000023d4 	movui	zero,143
    1914:	000023d4 	movui	zero,143
    1918:	00002168 	cmpgeui	zero,zero,133
    191c:	000023d4 	movui	zero,143
    1920:	000023d4 	movui	zero,143
    1924:	000023d4 	movui	zero,143
    1928:	000023d4 	movui	zero,143
    192c:	000023d4 	movui	zero,143
    1930:	000023d4 	movui	zero,143
    1934:	000023d4 	movui	zero,143
    1938:	000023d4 	movui	zero,143
    193c:	000023d4 	movui	zero,143
    1940:	000023d4 	movui	zero,143
    1944:	000021d0 	cmplti	zero,zero,135
    1948:	000020bc 	xorhi	zero,zero,130
    194c:	00001f44 	movi	zero,125
    1950:	00001f44 	movi	zero,125
    1954:	00001f44 	movi	zero,125
    1958:	00002100 	call	210 <main+0x1c>
    195c:	000020bc 	xorhi	zero,zero,130
    1960:	000023d4 	movui	zero,143
    1964:	000023d4 	movui	zero,143
    1968:	00002110 	cmplti	zero,zero,132
    196c:	000023d4 	movui	zero,143
    1970:	00002128 	cmpgeui	zero,zero,132
    1974:	00002398 	cmpnei	zero,zero,142
    1978:	00002070 	cmpltui	zero,zero,129
    197c:	0000234c 	andi	zero,zero,141
    1980:	000023d4 	movui	zero,143
    1984:	00002284 	movi	zero,138
    1988:	000023d4 	movui	zero,143
    198c:	0000235c 	xori	zero,zero,141
    1990:	000023d4 	movui	zero,143
    1994:	000023d4 	movui	zero,143
    1998:	00002300 	call	230 <main+0x3c>
    199c:	d9402a17 	ldw	r5,168(sp)
    19a0:	8163c83a 	sub	r17,r16,r5
    19a4:	003f7d06 	br	179c <___vfprintf_internal_r+0x120>
    19a8:	b809883a 	mov	r4,r23
    19ac:	b00b883a 	mov	r5,r22
    19b0:	00037b40 	call	37b4 <__swsetup_r>
    19b4:	10000c1e 	bne	r2,zero,19e8 <___vfprintf_internal_r+0x36c>
    19b8:	b080030b 	ldhu	r2,12(r22)
    19bc:	00c00284 	movi	r3,10
    19c0:	1080068c 	andi	r2,r2,26
    19c4:	10ff551e 	bne	r2,r3,171c <___vfprintf_internal_r+0xa0>
    19c8:	b080038f 	ldh	r2,14(r22)
    19cc:	103f5316 	blt	r2,zero,171c <___vfprintf_internal_r+0xa0>
    19d0:	d9802a17 	ldw	r6,168(sp)
    19d4:	d9c02d17 	ldw	r7,180(sp)
    19d8:	b809883a 	mov	r4,r23
    19dc:	b00b883a 	mov	r5,r22
    19e0:	00036f80 	call	36f8 <__sbprintf>
    19e4:	00000106 	br	19ec <___vfprintf_internal_r+0x370>
    19e8:	00bfffc4 	movi	r2,-1
    19ec:	dfc04917 	ldw	ra,292(sp)
    19f0:	df004817 	ldw	fp,288(sp)
    19f4:	ddc04717 	ldw	r23,284(sp)
    19f8:	dd804617 	ldw	r22,280(sp)
    19fc:	dd404517 	ldw	r21,276(sp)
    1a00:	dd004417 	ldw	r20,272(sp)
    1a04:	dcc04317 	ldw	r19,268(sp)
    1a08:	dc804217 	ldw	r18,264(sp)
    1a0c:	dc404117 	ldw	r17,260(sp)
    1a10:	dc004017 	ldw	r16,256(sp)
    1a14:	dec04a04 	addi	sp,sp,296
    1a18:	f800283a 	ret
    1a1c:	b809883a 	mov	r4,r23
    1a20:	b00b883a 	mov	r5,r22
    1a24:	d9801e04 	addi	r6,sp,120
    1a28:	0008b4c0 	call	8b4c <__sprint_r>
    1a2c:	1000081e 	bne	r2,zero,1a50 <___vfprintf_internal_r+0x3d4>
    1a30:	da000404 	addi	r8,sp,16
    1a34:	003f6606 	br	17d0 <___vfprintf_internal_r+0x154>
    1a38:	d8802017 	ldw	r2,128(sp)
    1a3c:	10000426 	beq	r2,zero,1a50 <___vfprintf_internal_r+0x3d4>
    1a40:	b809883a 	mov	r4,r23
    1a44:	b00b883a 	mov	r5,r22
    1a48:	d9801e04 	addi	r6,sp,120
    1a4c:	0008b4c0 	call	8b4c <__sprint_r>
    1a50:	b080030b 	ldhu	r2,12(r22)
    1a54:	1080100c 	andi	r2,r2,64
    1a58:	103fe31e 	bne	r2,zero,19e8 <___vfprintf_internal_r+0x36c>
    1a5c:	d8802f17 	ldw	r2,188(sp)
    1a60:	003fe206 	br	19ec <___vfprintf_internal_r+0x370>
    1a64:	b809883a 	mov	r4,r23
    1a68:	000584c0 	call	584c <__sinit>
    1a6c:	003f1b06 	br	16dc <___vfprintf_internal_r+0x60>
    1a70:	e005883a 	mov	r2,fp
    1a74:	9cc00114 	ori	r19,r19,4
    1a78:	e4000007 	ldb	r16,0(fp)
    1a7c:	003f6506 	br	1814 <___vfprintf_internal_r+0x198>
    1a80:	e4000007 	ldb	r16,0(fp)
    1a84:	01000a84 	movi	r4,42
    1a88:	e0800044 	addi	r2,fp,1
    1a8c:	8106ff26 	beq	r16,r4,368c <___vfprintf_internal_r+0x2010>
    1a90:	857ff404 	addi	r21,r16,-48
    1a94:	1039883a 	mov	fp,r2
    1a98:	0013883a 	mov	r9,zero
    1a9c:	957f5e36 	bltu	r18,r21,1818 <___vfprintf_internal_r+0x19c>
    1aa0:	0009883a 	mov	r4,zero
    1aa4:	01400284 	movi	r5,10
    1aa8:	0000dc40 	call	dc4 <__mulsi3>
    1aac:	e4000007 	ldb	r16,0(fp)
    1ab0:	a889883a 	add	r4,r21,r2
    1ab4:	e7000044 	addi	fp,fp,1
    1ab8:	857ff404 	addi	r21,r16,-48
    1abc:	957ff92e 	bgeu	r18,r21,1aa4 <___vfprintf_internal_r+0x428>
    1ac0:	2013883a 	mov	r9,r4
    1ac4:	203f540e 	bge	r4,zero,1818 <___vfprintf_internal_r+0x19c>
    1ac8:	027fffc4 	movi	r9,-1
    1acc:	003f5206 	br	1818 <___vfprintf_internal_r+0x19c>
    1ad0:	9cc02014 	ori	r19,r19,128
    1ad4:	e005883a 	mov	r2,fp
    1ad8:	e4000007 	ldb	r16,0(fp)
    1adc:	003f4d06 	br	1814 <___vfprintf_internal_r+0x198>
    1ae0:	857ff404 	addi	r21,r16,-48
    1ae4:	d8002e15 	stw	zero,184(sp)
    1ae8:	0009883a 	mov	r4,zero
    1aec:	da402c15 	stw	r9,176(sp)
    1af0:	e021883a 	mov	r16,fp
    1af4:	01400284 	movi	r5,10
    1af8:	0000dc40 	call	dc4 <__mulsi3>
    1afc:	81400007 	ldb	r5,0(r16)
    1b00:	1549883a 	add	r4,r2,r21
    1b04:	e7000044 	addi	fp,fp,1
    1b08:	2d7ff404 	addi	r21,r5,-48
    1b0c:	e021883a 	mov	r16,fp
    1b10:	957ff82e 	bgeu	r18,r21,1af4 <___vfprintf_internal_r+0x478>
    1b14:	2821883a 	mov	r16,r5
    1b18:	d9002e15 	stw	r4,184(sp)
    1b1c:	da402c17 	ldw	r9,176(sp)
    1b20:	003f3d06 	br	1818 <___vfprintf_internal_r+0x19c>
    1b24:	da002a17 	ldw	r8,168(sp)
    1b28:	df002a15 	stw	fp,168(sp)
    1b2c:	9839883a 	mov	fp,r19
    1b30:	dcc02b03 	ldbu	r19,172(sp)
    1b34:	e7000414 	ori	fp,fp,16
    1b38:	e080080c 	andi	r2,fp,32
    1b3c:	dcc02785 	stb	r19,158(sp)
    1b40:	d8c02d17 	ldw	r3,180(sp)
    1b44:	10016526 	beq	r2,zero,20dc <___vfprintf_internal_r+0xa60>
    1b48:	d9002d17 	ldw	r4,180(sp)
    1b4c:	18800117 	ldw	r2,4(r3)
    1b50:	1c800017 	ldw	r18,0(r3)
    1b54:	21000204 	addi	r4,r4,8
    1b58:	d9002d15 	stw	r4,180(sp)
    1b5c:	102b883a 	mov	r21,r2
    1b60:	10044516 	blt	r2,zero,2c78 <___vfprintf_internal_r+0x15fc>
    1b64:	dcc02783 	ldbu	r19,158(sp)
    1b68:	da403215 	stw	r9,200(sp)
    1b6c:	00800044 	movi	r2,1
    1b70:	9546b03a 	or	r3,r18,r21
    1b74:	48000216 	blt	r9,zero,1b80 <___vfprintf_internal_r+0x504>
    1b78:	013fdfc4 	movi	r4,-129
    1b7c:	e138703a 	and	fp,fp,r4
    1b80:	1802211e 	bne	r3,zero,2408 <___vfprintf_internal_r+0xd8c>
    1b84:	48031326 	beq	r9,zero,27d4 <___vfprintf_internal_r+0x1158>
    1b88:	10803fcc 	andi	r2,r2,255
    1b8c:	00c00044 	movi	r3,1
    1b90:	10c24126 	beq	r2,r3,2498 <___vfprintf_internal_r+0xe1c>
    1b94:	00c00084 	movi	r3,2
    1b98:	10c33426 	beq	r2,r3,286c <___vfprintf_internal_r+0x11f0>
    1b9c:	d8c01e04 	addi	r3,sp,120
    1ba0:	9008d0fa 	srli	r4,r18,3
    1ba4:	a80a977a 	slli	r5,r21,29
    1ba8:	a82ad0fa 	srli	r21,r21,3
    1bac:	948001cc 	andi	r18,r18,7
    1bb0:	90800c04 	addi	r2,r18,48
    1bb4:	18ffffc4 	addi	r3,r3,-1
    1bb8:	2924b03a 	or	r18,r5,r4
    1bbc:	18800005 	stb	r2,0(r3)
    1bc0:	9548b03a 	or	r4,r18,r21
    1bc4:	203ff61e 	bne	r4,zero,1ba0 <___vfprintf_internal_r+0x524>
    1bc8:	e100004c 	andi	r4,fp,1
    1bcc:	d8c03115 	stw	r3,196(sp)
    1bd0:	2003961e 	bne	r4,zero,2a2c <___vfprintf_internal_r+0x13b0>
    1bd4:	d8802817 	ldw	r2,160(sp)
    1bd8:	10e3c83a 	sub	r17,r2,r3
    1bdc:	8805883a 	mov	r2,r17
    1be0:	8a40010e 	bge	r17,r9,1be8 <___vfprintf_internal_r+0x56c>
    1be4:	4805883a 	mov	r2,r9
    1be8:	d8802b15 	stw	r2,172(sp)
    1bec:	d8003415 	stw	zero,208(sp)
    1bf0:	98803fcc 	andi	r2,r19,255
    1bf4:	1080201c 	xori	r2,r2,128
    1bf8:	10bfe004 	addi	r2,r2,-128
    1bfc:	10000326 	beq	r2,zero,1c0c <___vfprintf_internal_r+0x590>
    1c00:	d8c02b17 	ldw	r3,172(sp)
    1c04:	18c00044 	addi	r3,r3,1
    1c08:	d8c02b15 	stw	r3,172(sp)
    1c0c:	e0c0008c 	andi	r3,fp,2
    1c10:	d8c02c15 	stw	r3,176(sp)
    1c14:	18000326 	beq	r3,zero,1c24 <___vfprintf_internal_r+0x5a8>
    1c18:	d8c02b17 	ldw	r3,172(sp)
    1c1c:	18c00084 	addi	r3,r3,2
    1c20:	d8c02b15 	stw	r3,172(sp)
    1c24:	e0c0210c 	andi	r3,fp,132
    1c28:	d8c03015 	stw	r3,192(sp)
    1c2c:	1801f41e 	bne	r3,zero,2400 <___vfprintf_internal_r+0xd84>
    1c30:	d9002e17 	ldw	r4,184(sp)
    1c34:	d8c02b17 	ldw	r3,172(sp)
    1c38:	20ebc83a 	sub	r21,r4,r3
    1c3c:	0541f00e 	bge	zero,r21,2400 <___vfprintf_internal_r+0xd84>
    1c40:	02400404 	movi	r9,16
    1c44:	d8c02017 	ldw	r3,128(sp)
    1c48:	d8801f17 	ldw	r2,124(sp)
    1c4c:	4d45710e 	bge	r9,r21,3214 <___vfprintf_internal_r+0x1b98>
    1c50:	01400074 	movhi	r5,1
    1c54:	2948db84 	addi	r5,r5,9070
    1c58:	d9403615 	stw	r5,216(sp)
    1c5c:	4827883a 	mov	r19,r9
    1c60:	048001c4 	movi	r18,7
    1c64:	00000306 	br	1c74 <___vfprintf_internal_r+0x5f8>
    1c68:	ad7ffc04 	addi	r21,r21,-16
    1c6c:	42000204 	addi	r8,r8,8
    1c70:	9d40130e 	bge	r19,r21,1cc0 <___vfprintf_internal_r+0x644>
    1c74:	01000074 	movhi	r4,1
    1c78:	18c00404 	addi	r3,r3,16
    1c7c:	10800044 	addi	r2,r2,1
    1c80:	2108db84 	addi	r4,r4,9070
    1c84:	41000015 	stw	r4,0(r8)
    1c88:	44c00115 	stw	r19,4(r8)
    1c8c:	d8c02015 	stw	r3,128(sp)
    1c90:	d8801f15 	stw	r2,124(sp)
    1c94:	90bff40e 	bge	r18,r2,1c68 <___vfprintf_internal_r+0x5ec>
    1c98:	b809883a 	mov	r4,r23
    1c9c:	b00b883a 	mov	r5,r22
    1ca0:	d9801e04 	addi	r6,sp,120
    1ca4:	0008b4c0 	call	8b4c <__sprint_r>
    1ca8:	103f691e 	bne	r2,zero,1a50 <___vfprintf_internal_r+0x3d4>
    1cac:	ad7ffc04 	addi	r21,r21,-16
    1cb0:	d8c02017 	ldw	r3,128(sp)
    1cb4:	d8801f17 	ldw	r2,124(sp)
    1cb8:	da000404 	addi	r8,sp,16
    1cbc:	9d7fed16 	blt	r19,r21,1c74 <___vfprintf_internal_r+0x5f8>
    1cc0:	d9403617 	ldw	r5,216(sp)
    1cc4:	a8c7883a 	add	r3,r21,r3
    1cc8:	10800044 	addi	r2,r2,1
    1ccc:	41400015 	stw	r5,0(r8)
    1cd0:	45400115 	stw	r21,4(r8)
    1cd4:	d8c02015 	stw	r3,128(sp)
    1cd8:	d8801f15 	stw	r2,124(sp)
    1cdc:	010001c4 	movi	r4,7
    1ce0:	20832716 	blt	r4,r2,2980 <___vfprintf_internal_r+0x1304>
    1ce4:	d8802787 	ldb	r2,158(sp)
    1ce8:	42000204 	addi	r8,r8,8
    1cec:	10000c26 	beq	r2,zero,1d20 <___vfprintf_internal_r+0x6a4>
    1cf0:	d8801f17 	ldw	r2,124(sp)
    1cf4:	d9002784 	addi	r4,sp,158
    1cf8:	18c00044 	addi	r3,r3,1
    1cfc:	10800044 	addi	r2,r2,1
    1d00:	41000015 	stw	r4,0(r8)
    1d04:	01000044 	movi	r4,1
    1d08:	41000115 	stw	r4,4(r8)
    1d0c:	d8c02015 	stw	r3,128(sp)
    1d10:	d8801f15 	stw	r2,124(sp)
    1d14:	010001c4 	movi	r4,7
    1d18:	2082c016 	blt	r4,r2,281c <___vfprintf_internal_r+0x11a0>
    1d1c:	42000204 	addi	r8,r8,8
    1d20:	d8802c17 	ldw	r2,176(sp)
    1d24:	10000c26 	beq	r2,zero,1d58 <___vfprintf_internal_r+0x6dc>
    1d28:	d8801f17 	ldw	r2,124(sp)
    1d2c:	d9002704 	addi	r4,sp,156
    1d30:	18c00084 	addi	r3,r3,2
    1d34:	10800044 	addi	r2,r2,1
    1d38:	41000015 	stw	r4,0(r8)
    1d3c:	01000084 	movi	r4,2
    1d40:	41000115 	stw	r4,4(r8)
    1d44:	d8c02015 	stw	r3,128(sp)
    1d48:	d8801f15 	stw	r2,124(sp)
    1d4c:	010001c4 	movi	r4,7
    1d50:	2082ba16 	blt	r4,r2,283c <___vfprintf_internal_r+0x11c0>
    1d54:	42000204 	addi	r8,r8,8
    1d58:	d9003017 	ldw	r4,192(sp)
    1d5c:	00802004 	movi	r2,128
    1d60:	20821c26 	beq	r4,r2,25d4 <___vfprintf_internal_r+0xf58>
    1d64:	d9403217 	ldw	r5,200(sp)
    1d68:	2c67c83a 	sub	r19,r5,r17
    1d6c:	04c0260e 	bge	zero,r19,1e08 <___vfprintf_internal_r+0x78c>
    1d70:	05400404 	movi	r21,16
    1d74:	d8801f17 	ldw	r2,124(sp)
    1d78:	acc46e0e 	bge	r21,r19,2f34 <___vfprintf_internal_r+0x18b8>
    1d7c:	01400074 	movhi	r5,1
    1d80:	2948d784 	addi	r5,r5,9054
    1d84:	d9402c15 	stw	r5,176(sp)
    1d88:	048001c4 	movi	r18,7
    1d8c:	00000306 	br	1d9c <___vfprintf_internal_r+0x720>
    1d90:	9cfffc04 	addi	r19,r19,-16
    1d94:	42000204 	addi	r8,r8,8
    1d98:	acc0110e 	bge	r21,r19,1de0 <___vfprintf_internal_r+0x764>
    1d9c:	18c00404 	addi	r3,r3,16
    1da0:	10800044 	addi	r2,r2,1
    1da4:	45000015 	stw	r20,0(r8)
    1da8:	45400115 	stw	r21,4(r8)
    1dac:	d8c02015 	stw	r3,128(sp)
    1db0:	d8801f15 	stw	r2,124(sp)
    1db4:	90bff60e 	bge	r18,r2,1d90 <___vfprintf_internal_r+0x714>
    1db8:	b809883a 	mov	r4,r23
    1dbc:	b00b883a 	mov	r5,r22
    1dc0:	d9801e04 	addi	r6,sp,120
    1dc4:	0008b4c0 	call	8b4c <__sprint_r>
    1dc8:	103f211e 	bne	r2,zero,1a50 <___vfprintf_internal_r+0x3d4>
    1dcc:	9cfffc04 	addi	r19,r19,-16
    1dd0:	d8c02017 	ldw	r3,128(sp)
    1dd4:	d8801f17 	ldw	r2,124(sp)
    1dd8:	da000404 	addi	r8,sp,16
    1ddc:	acffef16 	blt	r21,r19,1d9c <___vfprintf_internal_r+0x720>
    1de0:	d9002c17 	ldw	r4,176(sp)
    1de4:	1cc7883a 	add	r3,r3,r19
    1de8:	10800044 	addi	r2,r2,1
    1dec:	41000015 	stw	r4,0(r8)
    1df0:	44c00115 	stw	r19,4(r8)
    1df4:	d8c02015 	stw	r3,128(sp)
    1df8:	d8801f15 	stw	r2,124(sp)
    1dfc:	010001c4 	movi	r4,7
    1e00:	20827e16 	blt	r4,r2,27fc <___vfprintf_internal_r+0x1180>
    1e04:	42000204 	addi	r8,r8,8
    1e08:	e080400c 	andi	r2,fp,256
    1e0c:	1001a81e 	bne	r2,zero,24b0 <___vfprintf_internal_r+0xe34>
    1e10:	d8801f17 	ldw	r2,124(sp)
    1e14:	d9403117 	ldw	r5,196(sp)
    1e18:	1c47883a 	add	r3,r3,r17
    1e1c:	10800044 	addi	r2,r2,1
    1e20:	41400015 	stw	r5,0(r8)
    1e24:	44400115 	stw	r17,4(r8)
    1e28:	d8c02015 	stw	r3,128(sp)
    1e2c:	d8801f15 	stw	r2,124(sp)
    1e30:	010001c4 	movi	r4,7
    1e34:	20825916 	blt	r4,r2,279c <___vfprintf_internal_r+0x1120>
    1e38:	42000204 	addi	r8,r8,8
    1e3c:	e080010c 	andi	r2,fp,4
    1e40:	10003126 	beq	r2,zero,1f08 <___vfprintf_internal_r+0x88c>
    1e44:	d8802e17 	ldw	r2,184(sp)
    1e48:	d9002b17 	ldw	r4,172(sp)
    1e4c:	1121c83a 	sub	r16,r2,r4
    1e50:	04002d0e 	bge	zero,r16,1f08 <___vfprintf_internal_r+0x88c>
    1e54:	04400404 	movi	r17,16
    1e58:	d8801f17 	ldw	r2,124(sp)
    1e5c:	8c053f0e 	bge	r17,r16,335c <___vfprintf_internal_r+0x1ce0>
    1e60:	01000074 	movhi	r4,1
    1e64:	2108db84 	addi	r4,r4,9070
    1e68:	d9003615 	stw	r4,216(sp)
    1e6c:	048001c4 	movi	r18,7
    1e70:	00000306 	br	1e80 <___vfprintf_internal_r+0x804>
    1e74:	843ffc04 	addi	r16,r16,-16
    1e78:	42000204 	addi	r8,r8,8
    1e7c:	8c00130e 	bge	r17,r16,1ecc <___vfprintf_internal_r+0x850>
    1e80:	01400074 	movhi	r5,1
    1e84:	18c00404 	addi	r3,r3,16
    1e88:	10800044 	addi	r2,r2,1
    1e8c:	2948db84 	addi	r5,r5,9070
    1e90:	41400015 	stw	r5,0(r8)
    1e94:	44400115 	stw	r17,4(r8)
    1e98:	d8c02015 	stw	r3,128(sp)
    1e9c:	d8801f15 	stw	r2,124(sp)
    1ea0:	90bff40e 	bge	r18,r2,1e74 <___vfprintf_internal_r+0x7f8>
    1ea4:	b809883a 	mov	r4,r23
    1ea8:	b00b883a 	mov	r5,r22
    1eac:	d9801e04 	addi	r6,sp,120
    1eb0:	0008b4c0 	call	8b4c <__sprint_r>
    1eb4:	103ee61e 	bne	r2,zero,1a50 <___vfprintf_internal_r+0x3d4>
    1eb8:	843ffc04 	addi	r16,r16,-16
    1ebc:	d8c02017 	ldw	r3,128(sp)
    1ec0:	d8801f17 	ldw	r2,124(sp)
    1ec4:	da000404 	addi	r8,sp,16
    1ec8:	8c3fed16 	blt	r17,r16,1e80 <___vfprintf_internal_r+0x804>
    1ecc:	d9003617 	ldw	r4,216(sp)
    1ed0:	1c07883a 	add	r3,r3,r16
    1ed4:	10800044 	addi	r2,r2,1
    1ed8:	41000015 	stw	r4,0(r8)
    1edc:	44000115 	stw	r16,4(r8)
    1ee0:	d8c02015 	stw	r3,128(sp)
    1ee4:	d8801f15 	stw	r2,124(sp)
    1ee8:	010001c4 	movi	r4,7
    1eec:	2080060e 	bge	r4,r2,1f08 <___vfprintf_internal_r+0x88c>
    1ef0:	b809883a 	mov	r4,r23
    1ef4:	b00b883a 	mov	r5,r22
    1ef8:	d9801e04 	addi	r6,sp,120
    1efc:	0008b4c0 	call	8b4c <__sprint_r>
    1f00:	103ed31e 	bne	r2,zero,1a50 <___vfprintf_internal_r+0x3d4>
    1f04:	d8c02017 	ldw	r3,128(sp)
    1f08:	df002b17 	ldw	fp,172(sp)
    1f0c:	d9402e17 	ldw	r5,184(sp)
    1f10:	e140010e 	bge	fp,r5,1f18 <___vfprintf_internal_r+0x89c>
    1f14:	2839883a 	mov	fp,r5
    1f18:	d8802f17 	ldw	r2,188(sp)
    1f1c:	1705883a 	add	r2,r2,fp
    1f20:	d8802f15 	stw	r2,188(sp)
    1f24:	1802251e 	bne	r3,zero,27bc <___vfprintf_internal_r+0x1140>
    1f28:	d8c02a17 	ldw	r3,168(sp)
    1f2c:	d8001f15 	stw	zero,124(sp)
    1f30:	da000404 	addi	r8,sp,16
    1f34:	18800007 	ldb	r2,0(r3)
    1f38:	103e0e1e 	bne	r2,zero,1774 <___vfprintf_internal_r+0xf8>
    1f3c:	dc002a17 	ldw	r16,168(sp)
    1f40:	003e2606 	br	17dc <___vfprintf_internal_r+0x160>
    1f44:	d9002d17 	ldw	r4,180(sp)
    1f48:	d9402d17 	ldw	r5,180(sp)
    1f4c:	da002a17 	ldw	r8,168(sp)
    1f50:	21000017 	ldw	r4,0(r4)
    1f54:	29400117 	ldw	r5,4(r5)
    1f58:	df002a15 	stw	fp,168(sp)
    1f5c:	9839883a 	mov	fp,r19
    1f60:	dcc02b03 	ldbu	r19,172(sp)
    1f64:	d9003715 	stw	r4,220(sp)
    1f68:	d9403915 	stw	r5,228(sp)
    1f6c:	da003f15 	stw	r8,252(sp)
    1f70:	da403e15 	stw	r9,248(sp)
    1f74:	dcc02785 	stb	r19,158(sp)
    1f78:	00087a80 	call	87a8 <__fpclassifyd>
    1f7c:	d8c02d17 	ldw	r3,180(sp)
    1f80:	04400044 	movi	r17,1
    1f84:	da003f17 	ldw	r8,252(sp)
    1f88:	1c800204 	addi	r18,r3,8
    1f8c:	da403e17 	ldw	r9,248(sp)
    1f90:	d9003717 	ldw	r4,220(sp)
    1f94:	d9403917 	ldw	r5,228(sp)
    1f98:	1443411e 	bne	r2,r17,2ca0 <___vfprintf_internal_r+0x1624>
    1f9c:	000d883a 	mov	r6,zero
    1fa0:	000f883a 	mov	r7,zero
    1fa4:	000c9480 	call	c948 <__ledf2>
    1fa8:	da003f17 	ldw	r8,252(sp)
    1fac:	10050d16 	blt	r2,zero,33e4 <___vfprintf_internal_r+0x1d68>
    1fb0:	dcc02783 	ldbu	r19,158(sp)
    1fb4:	008011c4 	movi	r2,71
    1fb8:	1404590e 	bge	r2,r16,3120 <___vfprintf_internal_r+0x1aa4>
    1fbc:	01400074 	movhi	r5,1
    1fc0:	2948c804 	addi	r5,r5,8992
    1fc4:	d9403115 	stw	r5,196(sp)
    1fc8:	00c000c4 	movi	r3,3
    1fcc:	00bfdfc4 	movi	r2,-129
    1fd0:	d8c02b15 	stw	r3,172(sp)
    1fd4:	e0b8703a 	and	fp,fp,r2
    1fd8:	dc802d15 	stw	r18,180(sp)
    1fdc:	1823883a 	mov	r17,r3
    1fe0:	d8003215 	stw	zero,200(sp)
    1fe4:	d8003415 	stw	zero,208(sp)
    1fe8:	003f0106 	br	1bf0 <___vfprintf_internal_r+0x574>
    1fec:	9cc00214 	ori	r19,r19,8
    1ff0:	e005883a 	mov	r2,fp
    1ff4:	e4000007 	ldb	r16,0(fp)
    1ff8:	003e0606 	br	1814 <___vfprintf_internal_r+0x198>
    1ffc:	da002a17 	ldw	r8,168(sp)
    2000:	df002a15 	stw	fp,168(sp)
    2004:	9f000414 	ori	fp,r19,16
    2008:	e080080c 	andi	r2,fp,32
    200c:	1000e726 	beq	r2,zero,23ac <___vfprintf_internal_r+0xd30>
    2010:	d9402d17 	ldw	r5,180(sp)
    2014:	0005883a 	mov	r2,zero
    2018:	2c800017 	ldw	r18,0(r5)
    201c:	2d400117 	ldw	r21,4(r5)
    2020:	29400204 	addi	r5,r5,8
    2024:	d9402d15 	stw	r5,180(sp)
    2028:	9546b03a 	or	r3,r18,r21
    202c:	d8002785 	stb	zero,158(sp)
    2030:	da403215 	stw	r9,200(sp)
    2034:	0027883a 	mov	r19,zero
    2038:	003ece06 	br	1b74 <___vfprintf_internal_r+0x4f8>
    203c:	da002a17 	ldw	r8,168(sp)
    2040:	df002a15 	stw	fp,168(sp)
    2044:	9f000414 	ori	fp,r19,16
    2048:	e080080c 	andi	r2,fp,32
    204c:	1000c826 	beq	r2,zero,2370 <___vfprintf_internal_r+0xcf4>
    2050:	d9002d17 	ldw	r4,180(sp)
    2054:	00800044 	movi	r2,1
    2058:	24800017 	ldw	r18,0(r4)
    205c:	25400117 	ldw	r21,4(r4)
    2060:	21000204 	addi	r4,r4,8
    2064:	d9002d15 	stw	r4,180(sp)
    2068:	9546b03a 	or	r3,r18,r21
    206c:	003fef06 	br	202c <___vfprintf_internal_r+0x9b0>
    2070:	d9402d17 	ldw	r5,180(sp)
    2074:	00800c04 	movi	r2,48
    2078:	d8802705 	stb	r2,156(sp)
    207c:	2c800017 	ldw	r18,0(r5)
    2080:	00801e04 	movi	r2,120
    2084:	d8802745 	stb	r2,157(sp)
    2088:	00800074 	movhi	r2,1
    208c:	1088d004 	addi	r2,r2,9024
    2090:	29400104 	addi	r5,r5,4
    2094:	da002a17 	ldw	r8,168(sp)
    2098:	d8803b15 	stw	r2,236(sp)
    209c:	df002a15 	stw	fp,168(sp)
    20a0:	002b883a 	mov	r21,zero
    20a4:	9f000094 	ori	fp,r19,2
    20a8:	d9402d15 	stw	r5,180(sp)
    20ac:	00800084 	movi	r2,2
    20b0:	04001e04 	movi	r16,120
    20b4:	9007883a 	mov	r3,r18
    20b8:	003fdc06 	br	202c <___vfprintf_internal_r+0x9b0>
    20bc:	da002a17 	ldw	r8,168(sp)
    20c0:	df002a15 	stw	fp,168(sp)
    20c4:	9839883a 	mov	fp,r19
    20c8:	dcc02b03 	ldbu	r19,172(sp)
    20cc:	e080080c 	andi	r2,fp,32
    20d0:	d8c02d17 	ldw	r3,180(sp)
    20d4:	dcc02785 	stb	r19,158(sp)
    20d8:	103e9b1e 	bne	r2,zero,1b48 <___vfprintf_internal_r+0x4cc>
    20dc:	e080040c 	andi	r2,fp,16
    20e0:	10036626 	beq	r2,zero,2e7c <___vfprintf_internal_r+0x1800>
    20e4:	1c800017 	ldw	r18,0(r3)
    20e8:	d9402d17 	ldw	r5,180(sp)
    20ec:	902bd7fa 	srai	r21,r18,31
    20f0:	29400104 	addi	r5,r5,4
    20f4:	d9402d15 	stw	r5,180(sp)
    20f8:	a805883a 	mov	r2,r21
    20fc:	003e9806 	br	1b60 <___vfprintf_internal_r+0x4e4>
    2100:	9cc01014 	ori	r19,r19,64
    2104:	e005883a 	mov	r2,fp
    2108:	e4000007 	ldb	r16,0(fp)
    210c:	003dc106 	br	1814 <___vfprintf_internal_r+0x198>
    2110:	e4000007 	ldb	r16,0(fp)
    2114:	00801b04 	movi	r2,108
    2118:	80841426 	beq	r16,r2,316c <___vfprintf_internal_r+0x1af0>
    211c:	9cc00414 	ori	r19,r19,16
    2120:	e005883a 	mov	r2,fp
    2124:	003dbb06 	br	1814 <___vfprintf_internal_r+0x198>
    2128:	da002a17 	ldw	r8,168(sp)
    212c:	df002a15 	stw	fp,168(sp)
    2130:	9839883a 	mov	fp,r19
    2134:	dcc02b03 	ldbu	r19,172(sp)
    2138:	e080080c 	andi	r2,fp,32
    213c:	dcc02785 	stb	r19,158(sp)
    2140:	10036126 	beq	r2,zero,2ec8 <___vfprintf_internal_r+0x184c>
    2144:	d9402d17 	ldw	r5,180(sp)
    2148:	d9002f17 	ldw	r4,188(sp)
    214c:	28800017 	ldw	r2,0(r5)
    2150:	2007d7fa 	srai	r3,r4,31
    2154:	29400104 	addi	r5,r5,4
    2158:	d9402d15 	stw	r5,180(sp)
    215c:	11000015 	stw	r4,0(r2)
    2160:	10c00115 	stw	r3,4(r2)
    2164:	003d8006 	br	1768 <___vfprintf_internal_r+0xec>
    2168:	da002a17 	ldw	r8,168(sp)
    216c:	df002a15 	stw	fp,168(sp)
    2170:	9839883a 	mov	fp,r19
    2174:	dcc02b03 	ldbu	r19,172(sp)
    2178:	01400074 	movhi	r5,1
    217c:	2948cb04 	addi	r5,r5,9004
    2180:	dcc02785 	stb	r19,158(sp)
    2184:	d9403b15 	stw	r5,236(sp)
    2188:	e0c0080c 	andi	r3,fp,32
    218c:	d8802d17 	ldw	r2,180(sp)
    2190:	18006626 	beq	r3,zero,232c <___vfprintf_internal_r+0xcb0>
    2194:	d9402d17 	ldw	r5,180(sp)
    2198:	14800017 	ldw	r18,0(r2)
    219c:	15400117 	ldw	r21,4(r2)
    21a0:	29400204 	addi	r5,r5,8
    21a4:	d9402d15 	stw	r5,180(sp)
    21a8:	e080004c 	andi	r2,fp,1
    21ac:	1001fd26 	beq	r2,zero,29a4 <___vfprintf_internal_r+0x1328>
    21b0:	9546b03a 	or	r3,r18,r21
    21b4:	18034f26 	beq	r3,zero,2ef4 <___vfprintf_internal_r+0x1878>
    21b8:	00800c04 	movi	r2,48
    21bc:	d8802705 	stb	r2,156(sp)
    21c0:	dc002745 	stb	r16,157(sp)
    21c4:	e7000094 	ori	fp,fp,2
    21c8:	00800084 	movi	r2,2
    21cc:	003f9706 	br	202c <___vfprintf_internal_r+0x9b0>
    21d0:	d8c02d17 	ldw	r3,180(sp)
    21d4:	d9002d17 	ldw	r4,180(sp)
    21d8:	da002a17 	ldw	r8,168(sp)
    21dc:	18800017 	ldw	r2,0(r3)
    21e0:	21000104 	addi	r4,r4,4
    21e4:	00c00044 	movi	r3,1
    21e8:	df002a15 	stw	fp,168(sp)
    21ec:	d8c02b15 	stw	r3,172(sp)
    21f0:	9839883a 	mov	fp,r19
    21f4:	d8002785 	stb	zero,158(sp)
    21f8:	d8801405 	stb	r2,80(sp)
    21fc:	d9002d15 	stw	r4,180(sp)
    2200:	1823883a 	mov	r17,r3
    2204:	d8c01404 	addi	r3,sp,80
    2208:	d8003215 	stw	zero,200(sp)
    220c:	d8003415 	stw	zero,208(sp)
    2210:	d8c03115 	stw	r3,196(sp)
    2214:	0005883a 	mov	r2,zero
    2218:	003e7c06 	br	1c0c <___vfprintf_internal_r+0x590>
    221c:	d8802b07 	ldb	r2,172(sp)
    2220:	1003011e 	bne	r2,zero,2e28 <___vfprintf_internal_r+0x17ac>
    2224:	00c00804 	movi	r3,32
    2228:	d8c02b05 	stb	r3,172(sp)
    222c:	e005883a 	mov	r2,fp
    2230:	e4000007 	ldb	r16,0(fp)
    2234:	003d7706 	br	1814 <___vfprintf_internal_r+0x198>
    2238:	9cc00054 	ori	r19,r19,1
    223c:	e005883a 	mov	r2,fp
    2240:	e4000007 	ldb	r16,0(fp)
    2244:	003d7306 	br	1814 <___vfprintf_internal_r+0x198>
    2248:	d9002d17 	ldw	r4,180(sp)
    224c:	d9402d17 	ldw	r5,180(sp)
    2250:	21000017 	ldw	r4,0(r4)
    2254:	28c00104 	addi	r3,r5,4
    2258:	d9002e15 	stw	r4,184(sp)
    225c:	2003bd16 	blt	r4,zero,3154 <___vfprintf_internal_r+0x1ad8>
    2260:	d8c02d15 	stw	r3,180(sp)
    2264:	e005883a 	mov	r2,fp
    2268:	e4000007 	ldb	r16,0(fp)
    226c:	003d6906 	br	1814 <___vfprintf_internal_r+0x198>
    2270:	00c00ac4 	movi	r3,43
    2274:	d8c02b05 	stb	r3,172(sp)
    2278:	e005883a 	mov	r2,fp
    227c:	e4000007 	ldb	r16,0(fp)
    2280:	003d6406 	br	1814 <___vfprintf_internal_r+0x198>
    2284:	d8c02d17 	ldw	r3,180(sp)
    2288:	d9002d17 	ldw	r4,180(sp)
    228c:	da002a17 	ldw	r8,168(sp)
    2290:	18c00017 	ldw	r3,0(r3)
    2294:	df002a15 	stw	fp,168(sp)
    2298:	d8002785 	stb	zero,158(sp)
    229c:	d8c03115 	stw	r3,196(sp)
    22a0:	9839883a 	mov	fp,r19
    22a4:	24800104 	addi	r18,r4,4
    22a8:	18041b26 	beq	r3,zero,3318 <___vfprintf_internal_r+0x1c9c>
    22ac:	d9003117 	ldw	r4,196(sp)
    22b0:	4803be16 	blt	r9,zero,31ac <___vfprintf_internal_r+0x1b30>
    22b4:	480d883a 	mov	r6,r9
    22b8:	000b883a 	mov	r5,zero
    22bc:	da003f15 	stw	r8,252(sp)
    22c0:	da403e15 	stw	r9,248(sp)
    22c4:	0006d440 	call	6d44 <memchr>
    22c8:	da003f17 	ldw	r8,252(sp)
    22cc:	da403e17 	ldw	r9,248(sp)
    22d0:	10045426 	beq	r2,zero,3424 <___vfprintf_internal_r+0x1da8>
    22d4:	d8c03117 	ldw	r3,196(sp)
    22d8:	10e3c83a 	sub	r17,r2,r3
    22dc:	4c436a16 	blt	r9,r17,3088 <___vfprintf_internal_r+0x1a0c>
    22e0:	8805883a 	mov	r2,r17
    22e4:	8803b616 	blt	r17,zero,31c0 <___vfprintf_internal_r+0x1b44>
    22e8:	dcc02783 	ldbu	r19,158(sp)
    22ec:	d8802b15 	stw	r2,172(sp)
    22f0:	dc802d15 	stw	r18,180(sp)
    22f4:	d8003215 	stw	zero,200(sp)
    22f8:	d8003415 	stw	zero,208(sp)
    22fc:	003e3c06 	br	1bf0 <___vfprintf_internal_r+0x574>
    2300:	da002a17 	ldw	r8,168(sp)
    2304:	df002a15 	stw	fp,168(sp)
    2308:	9839883a 	mov	fp,r19
    230c:	dcc02b03 	ldbu	r19,172(sp)
    2310:	01000074 	movhi	r4,1
    2314:	2108d004 	addi	r4,r4,9024
    2318:	d9003b15 	stw	r4,236(sp)
    231c:	dcc02785 	stb	r19,158(sp)
    2320:	e0c0080c 	andi	r3,fp,32
    2324:	d8802d17 	ldw	r2,180(sp)
    2328:	183f9a1e 	bne	r3,zero,2194 <___vfprintf_internal_r+0xb18>
    232c:	e0c0040c 	andi	r3,fp,16
    2330:	1802c026 	beq	r3,zero,2e34 <___vfprintf_internal_r+0x17b8>
    2334:	d8c02d17 	ldw	r3,180(sp)
    2338:	14800017 	ldw	r18,0(r2)
    233c:	002b883a 	mov	r21,zero
    2340:	18c00104 	addi	r3,r3,4
    2344:	d8c02d15 	stw	r3,180(sp)
    2348:	003f9706 	br	21a8 <___vfprintf_internal_r+0xb2c>
    234c:	9cc00814 	ori	r19,r19,32
    2350:	e005883a 	mov	r2,fp
    2354:	e4000007 	ldb	r16,0(fp)
    2358:	003d2e06 	br	1814 <___vfprintf_internal_r+0x198>
    235c:	da002a17 	ldw	r8,168(sp)
    2360:	df002a15 	stw	fp,168(sp)
    2364:	9839883a 	mov	fp,r19
    2368:	e080080c 	andi	r2,fp,32
    236c:	103f381e 	bne	r2,zero,2050 <___vfprintf_internal_r+0x9d4>
    2370:	e080040c 	andi	r2,fp,16
    2374:	1002b726 	beq	r2,zero,2e54 <___vfprintf_internal_r+0x17d8>
    2378:	d9402d17 	ldw	r5,180(sp)
    237c:	002b883a 	mov	r21,zero
    2380:	00800044 	movi	r2,1
    2384:	2c800017 	ldw	r18,0(r5)
    2388:	29400104 	addi	r5,r5,4
    238c:	d9402d15 	stw	r5,180(sp)
    2390:	9007883a 	mov	r3,r18
    2394:	003f2506 	br	202c <___vfprintf_internal_r+0x9b0>
    2398:	da002a17 	ldw	r8,168(sp)
    239c:	df002a15 	stw	fp,168(sp)
    23a0:	9839883a 	mov	fp,r19
    23a4:	e080080c 	andi	r2,fp,32
    23a8:	103f191e 	bne	r2,zero,2010 <___vfprintf_internal_r+0x994>
    23ac:	e080040c 	andi	r2,fp,16
    23b0:	1002bb26 	beq	r2,zero,2ea0 <___vfprintf_internal_r+0x1824>
    23b4:	d8802d17 	ldw	r2,180(sp)
    23b8:	002b883a 	mov	r21,zero
    23bc:	14800017 	ldw	r18,0(r2)
    23c0:	10800104 	addi	r2,r2,4
    23c4:	d8802d15 	stw	r2,180(sp)
    23c8:	9007883a 	mov	r3,r18
    23cc:	0005883a 	mov	r2,zero
    23d0:	003f1606 	br	202c <___vfprintf_internal_r+0x9b0>
    23d4:	da002a17 	ldw	r8,168(sp)
    23d8:	df002a15 	stw	fp,168(sp)
    23dc:	9839883a 	mov	fp,r19
    23e0:	dcc02b03 	ldbu	r19,172(sp)
    23e4:	dcc02785 	stb	r19,158(sp)
    23e8:	803d9326 	beq	r16,zero,1a38 <___vfprintf_internal_r+0x3bc>
    23ec:	00c00044 	movi	r3,1
    23f0:	d8c02b15 	stw	r3,172(sp)
    23f4:	dc001405 	stb	r16,80(sp)
    23f8:	d8002785 	stb	zero,158(sp)
    23fc:	003f8006 	br	2200 <___vfprintf_internal_r+0xb84>
    2400:	d8c02017 	ldw	r3,128(sp)
    2404:	003e3906 	br	1cec <___vfprintf_internal_r+0x670>
    2408:	10803fcc 	andi	r2,r2,255
    240c:	00c00044 	movi	r3,1
    2410:	10fde01e 	bne	r2,r3,1b94 <___vfprintf_internal_r+0x518>
    2414:	a800021e 	bne	r21,zero,2420 <___vfprintf_internal_r+0xda4>
    2418:	00800244 	movi	r2,9
    241c:	14801e2e 	bgeu	r2,r18,2498 <___vfprintf_internal_r+0xe1c>
    2420:	dc002b15 	stw	r16,172(sp)
    2424:	dc401e04 	addi	r17,sp,120
    2428:	9021883a 	mov	r16,r18
    242c:	da402c15 	stw	r9,176(sp)
    2430:	a825883a 	mov	r18,r21
    2434:	402b883a 	mov	r21,r8
    2438:	8009883a 	mov	r4,r16
    243c:	900b883a 	mov	r5,r18
    2440:	01800284 	movi	r6,10
    2444:	000f883a 	mov	r7,zero
    2448:	000ae800 	call	ae80 <__umoddi3>
    244c:	10800c04 	addi	r2,r2,48
    2450:	8c7fffc4 	addi	r17,r17,-1
    2454:	8009883a 	mov	r4,r16
    2458:	900b883a 	mov	r5,r18
    245c:	01800284 	movi	r6,10
    2460:	000f883a 	mov	r7,zero
    2464:	88800005 	stb	r2,0(r17)
    2468:	000a8400 	call	a840 <__udivdi3>
    246c:	1021883a 	mov	r16,r2
    2470:	10c4b03a 	or	r2,r2,r3
    2474:	1825883a 	mov	r18,r3
    2478:	103fef1e 	bne	r2,zero,2438 <___vfprintf_internal_r+0xdbc>
    247c:	d9002817 	ldw	r4,160(sp)
    2480:	dc403115 	stw	r17,196(sp)
    2484:	dc002b17 	ldw	r16,172(sp)
    2488:	da402c17 	ldw	r9,176(sp)
    248c:	a811883a 	mov	r8,r21
    2490:	2463c83a 	sub	r17,r4,r17
    2494:	003dd106 	br	1bdc <___vfprintf_internal_r+0x560>
    2498:	94800c04 	addi	r18,r18,48
    249c:	d8c01dc4 	addi	r3,sp,119
    24a0:	dc801dc5 	stb	r18,119(sp)
    24a4:	dc403c17 	ldw	r17,240(sp)
    24a8:	d8c03115 	stw	r3,196(sp)
    24ac:	003dcb06 	br	1bdc <___vfprintf_internal_r+0x560>
    24b0:	00801944 	movi	r2,101
    24b4:	1400720e 	bge	r2,r16,2680 <___vfprintf_internal_r+0x1004>
    24b8:	d9003717 	ldw	r4,220(sp)
    24bc:	d9403917 	ldw	r5,228(sp)
    24c0:	000d883a 	mov	r6,zero
    24c4:	000f883a 	mov	r7,zero
    24c8:	d8c03d15 	stw	r3,244(sp)
    24cc:	da003f15 	stw	r8,252(sp)
    24d0:	000c7e40 	call	c7e4 <__eqdf2>
    24d4:	d8c03d17 	ldw	r3,244(sp)
    24d8:	da003f17 	ldw	r8,252(sp)
    24dc:	1000f41e 	bne	r2,zero,28b0 <___vfprintf_internal_r+0x1234>
    24e0:	d8801f17 	ldw	r2,124(sp)
    24e4:	01000074 	movhi	r4,1
    24e8:	2108d704 	addi	r4,r4,9052
    24ec:	18c00044 	addi	r3,r3,1
    24f0:	10800044 	addi	r2,r2,1
    24f4:	41000015 	stw	r4,0(r8)
    24f8:	01000044 	movi	r4,1
    24fc:	41000115 	stw	r4,4(r8)
    2500:	d8c02015 	stw	r3,128(sp)
    2504:	d8801f15 	stw	r2,124(sp)
    2508:	010001c4 	movi	r4,7
    250c:	20828d16 	blt	r4,r2,2f44 <___vfprintf_internal_r+0x18c8>
    2510:	42000204 	addi	r8,r8,8
    2514:	d8802617 	ldw	r2,152(sp)
    2518:	d9403317 	ldw	r5,204(sp)
    251c:	11400216 	blt	r2,r5,2528 <___vfprintf_internal_r+0xeac>
    2520:	e080004c 	andi	r2,fp,1
    2524:	103e4526 	beq	r2,zero,1e3c <___vfprintf_internal_r+0x7c0>
    2528:	d8803817 	ldw	r2,224(sp)
    252c:	d9003517 	ldw	r4,212(sp)
    2530:	d9403817 	ldw	r5,224(sp)
    2534:	1887883a 	add	r3,r3,r2
    2538:	d8801f17 	ldw	r2,124(sp)
    253c:	41000015 	stw	r4,0(r8)
    2540:	41400115 	stw	r5,4(r8)
    2544:	10800044 	addi	r2,r2,1
    2548:	d8c02015 	stw	r3,128(sp)
    254c:	d8801f15 	stw	r2,124(sp)
    2550:	010001c4 	movi	r4,7
    2554:	20830916 	blt	r4,r2,317c <___vfprintf_internal_r+0x1b00>
    2558:	42000204 	addi	r8,r8,8
    255c:	d8803317 	ldw	r2,204(sp)
    2560:	143fffc4 	addi	r16,r2,-1
    2564:	043e350e 	bge	zero,r16,1e3c <___vfprintf_internal_r+0x7c0>
    2568:	04400404 	movi	r17,16
    256c:	d8801f17 	ldw	r2,124(sp)
    2570:	8c007e0e 	bge	r17,r16,276c <___vfprintf_internal_r+0x10f0>
    2574:	01400074 	movhi	r5,1
    2578:	2948d784 	addi	r5,r5,9054
    257c:	d9402c15 	stw	r5,176(sp)
    2580:	04c001c4 	movi	r19,7
    2584:	00000306 	br	2594 <___vfprintf_internal_r+0xf18>
    2588:	42000204 	addi	r8,r8,8
    258c:	843ffc04 	addi	r16,r16,-16
    2590:	8c00790e 	bge	r17,r16,2778 <___vfprintf_internal_r+0x10fc>
    2594:	18c00404 	addi	r3,r3,16
    2598:	10800044 	addi	r2,r2,1
    259c:	45000015 	stw	r20,0(r8)
    25a0:	44400115 	stw	r17,4(r8)
    25a4:	d8c02015 	stw	r3,128(sp)
    25a8:	d8801f15 	stw	r2,124(sp)
    25ac:	98bff60e 	bge	r19,r2,2588 <___vfprintf_internal_r+0xf0c>
    25b0:	b809883a 	mov	r4,r23
    25b4:	b00b883a 	mov	r5,r22
    25b8:	d9801e04 	addi	r6,sp,120
    25bc:	0008b4c0 	call	8b4c <__sprint_r>
    25c0:	103d231e 	bne	r2,zero,1a50 <___vfprintf_internal_r+0x3d4>
    25c4:	d8c02017 	ldw	r3,128(sp)
    25c8:	d8801f17 	ldw	r2,124(sp)
    25cc:	da000404 	addi	r8,sp,16
    25d0:	003fee06 	br	258c <___vfprintf_internal_r+0xf10>
    25d4:	d9402e17 	ldw	r5,184(sp)
    25d8:	d8802b17 	ldw	r2,172(sp)
    25dc:	28a7c83a 	sub	r19,r5,r2
    25e0:	04fde00e 	bge	zero,r19,1d64 <___vfprintf_internal_r+0x6e8>
    25e4:	05400404 	movi	r21,16
    25e8:	d8801f17 	ldw	r2,124(sp)
    25ec:	acc3870e 	bge	r21,r19,340c <___vfprintf_internal_r+0x1d90>
    25f0:	01400074 	movhi	r5,1
    25f4:	2948d784 	addi	r5,r5,9054
    25f8:	d9402c15 	stw	r5,176(sp)
    25fc:	048001c4 	movi	r18,7
    2600:	00000306 	br	2610 <___vfprintf_internal_r+0xf94>
    2604:	9cfffc04 	addi	r19,r19,-16
    2608:	42000204 	addi	r8,r8,8
    260c:	acc0110e 	bge	r21,r19,2654 <___vfprintf_internal_r+0xfd8>
    2610:	18c00404 	addi	r3,r3,16
    2614:	10800044 	addi	r2,r2,1
    2618:	45000015 	stw	r20,0(r8)
    261c:	45400115 	stw	r21,4(r8)
    2620:	d8c02015 	stw	r3,128(sp)
    2624:	d8801f15 	stw	r2,124(sp)
    2628:	90bff60e 	bge	r18,r2,2604 <___vfprintf_internal_r+0xf88>
    262c:	b809883a 	mov	r4,r23
    2630:	b00b883a 	mov	r5,r22
    2634:	d9801e04 	addi	r6,sp,120
    2638:	0008b4c0 	call	8b4c <__sprint_r>
    263c:	103d041e 	bne	r2,zero,1a50 <___vfprintf_internal_r+0x3d4>
    2640:	9cfffc04 	addi	r19,r19,-16
    2644:	d8c02017 	ldw	r3,128(sp)
    2648:	d8801f17 	ldw	r2,124(sp)
    264c:	da000404 	addi	r8,sp,16
    2650:	acffef16 	blt	r21,r19,2610 <___vfprintf_internal_r+0xf94>
    2654:	d9002c17 	ldw	r4,176(sp)
    2658:	1cc7883a 	add	r3,r3,r19
    265c:	10800044 	addi	r2,r2,1
    2660:	41000015 	stw	r4,0(r8)
    2664:	44c00115 	stw	r19,4(r8)
    2668:	d8c02015 	stw	r3,128(sp)
    266c:	d8801f15 	stw	r2,124(sp)
    2670:	010001c4 	movi	r4,7
    2674:	20817816 	blt	r4,r2,2c58 <___vfprintf_internal_r+0x15dc>
    2678:	42000204 	addi	r8,r8,8
    267c:	003db906 	br	1d64 <___vfprintf_internal_r+0x6e8>
    2680:	d9403317 	ldw	r5,204(sp)
    2684:	00800044 	movi	r2,1
    2688:	18c00044 	addi	r3,r3,1
    268c:	11413e0e 	bge	r2,r5,2b88 <___vfprintf_internal_r+0x150c>
    2690:	dc001f17 	ldw	r16,124(sp)
    2694:	d8803117 	ldw	r2,196(sp)
    2698:	d8c02015 	stw	r3,128(sp)
    269c:	84000044 	addi	r16,r16,1
    26a0:	40800015 	stw	r2,0(r8)
    26a4:	00800044 	movi	r2,1
    26a8:	40800115 	stw	r2,4(r8)
    26ac:	dc001f15 	stw	r16,124(sp)
    26b0:	008001c4 	movi	r2,7
    26b4:	14015616 	blt	r2,r16,2c10 <___vfprintf_internal_r+0x1594>
    26b8:	42000204 	addi	r8,r8,8
    26bc:	d9003817 	ldw	r4,224(sp)
    26c0:	d9403517 	ldw	r5,212(sp)
    26c4:	84000044 	addi	r16,r16,1
    26c8:	1907883a 	add	r3,r3,r4
    26cc:	41400015 	stw	r5,0(r8)
    26d0:	41000115 	stw	r4,4(r8)
    26d4:	d8c02015 	stw	r3,128(sp)
    26d8:	dc001f15 	stw	r16,124(sp)
    26dc:	008001c4 	movi	r2,7
    26e0:	14015416 	blt	r2,r16,2c34 <___vfprintf_internal_r+0x15b8>
    26e4:	44400204 	addi	r17,r8,8
    26e8:	d9003717 	ldw	r4,220(sp)
    26ec:	d9403917 	ldw	r5,228(sp)
    26f0:	000d883a 	mov	r6,zero
    26f4:	000f883a 	mov	r7,zero
    26f8:	d8c03d15 	stw	r3,244(sp)
    26fc:	000c7e40 	call	c7e4 <__eqdf2>
    2700:	d8c03d17 	ldw	r3,244(sp)
    2704:	1000aa26 	beq	r2,zero,29b0 <___vfprintf_internal_r+0x1334>
    2708:	d9003317 	ldw	r4,204(sp)
    270c:	d9403117 	ldw	r5,196(sp)
    2710:	84000044 	addi	r16,r16,1
    2714:	20bfffc4 	addi	r2,r4,-1
    2718:	1887883a 	add	r3,r3,r2
    271c:	29000044 	addi	r4,r5,1
    2720:	88800115 	stw	r2,4(r17)
    2724:	89000015 	stw	r4,0(r17)
    2728:	d8c02015 	stw	r3,128(sp)
    272c:	dc001f15 	stw	r16,124(sp)
    2730:	008001c4 	movi	r2,7
    2734:	14012d16 	blt	r2,r16,2bec <___vfprintf_internal_r+0x1570>
    2738:	8c400204 	addi	r17,r17,8
    273c:	d9403a17 	ldw	r5,232(sp)
    2740:	dcc022c4 	addi	r19,sp,139
    2744:	84000044 	addi	r16,r16,1
    2748:	1947883a 	add	r3,r3,r5
    274c:	8cc00015 	stw	r19,0(r17)
    2750:	89400115 	stw	r5,4(r17)
    2754:	d8c02015 	stw	r3,128(sp)
    2758:	dc001f15 	stw	r16,124(sp)
    275c:	008001c4 	movi	r2,7
    2760:	14000e16 	blt	r2,r16,279c <___vfprintf_internal_r+0x1120>
    2764:	8a000204 	addi	r8,r17,8
    2768:	003db406 	br	1e3c <___vfprintf_internal_r+0x7c0>
    276c:	01000074 	movhi	r4,1
    2770:	2108d784 	addi	r4,r4,9054
    2774:	d9002c15 	stw	r4,176(sp)
    2778:	d9002c17 	ldw	r4,176(sp)
    277c:	1c07883a 	add	r3,r3,r16
    2780:	44000115 	stw	r16,4(r8)
    2784:	41000015 	stw	r4,0(r8)
    2788:	10800044 	addi	r2,r2,1
    278c:	d8c02015 	stw	r3,128(sp)
    2790:	d8801f15 	stw	r2,124(sp)
    2794:	010001c4 	movi	r4,7
    2798:	20bda70e 	bge	r4,r2,1e38 <___vfprintf_internal_r+0x7bc>
    279c:	b809883a 	mov	r4,r23
    27a0:	b00b883a 	mov	r5,r22
    27a4:	d9801e04 	addi	r6,sp,120
    27a8:	0008b4c0 	call	8b4c <__sprint_r>
    27ac:	103ca81e 	bne	r2,zero,1a50 <___vfprintf_internal_r+0x3d4>
    27b0:	d8c02017 	ldw	r3,128(sp)
    27b4:	da000404 	addi	r8,sp,16
    27b8:	003da006 	br	1e3c <___vfprintf_internal_r+0x7c0>
    27bc:	b809883a 	mov	r4,r23
    27c0:	b00b883a 	mov	r5,r22
    27c4:	d9801e04 	addi	r6,sp,120
    27c8:	0008b4c0 	call	8b4c <__sprint_r>
    27cc:	103dd626 	beq	r2,zero,1f28 <___vfprintf_internal_r+0x8ac>
    27d0:	003c9f06 	br	1a50 <___vfprintf_internal_r+0x3d4>
    27d4:	10803fcc 	andi	r2,r2,255
    27d8:	1000201e 	bne	r2,zero,285c <___vfprintf_internal_r+0x11e0>
    27dc:	e080004c 	andi	r2,fp,1
    27e0:	10001e26 	beq	r2,zero,285c <___vfprintf_internal_r+0x11e0>
    27e4:	00800c04 	movi	r2,48
    27e8:	d8c01dc4 	addi	r3,sp,119
    27ec:	d8801dc5 	stb	r2,119(sp)
    27f0:	dc403c17 	ldw	r17,240(sp)
    27f4:	d8c03115 	stw	r3,196(sp)
    27f8:	003cf806 	br	1bdc <___vfprintf_internal_r+0x560>
    27fc:	b809883a 	mov	r4,r23
    2800:	b00b883a 	mov	r5,r22
    2804:	d9801e04 	addi	r6,sp,120
    2808:	0008b4c0 	call	8b4c <__sprint_r>
    280c:	103c901e 	bne	r2,zero,1a50 <___vfprintf_internal_r+0x3d4>
    2810:	d8c02017 	ldw	r3,128(sp)
    2814:	da000404 	addi	r8,sp,16
    2818:	003d7b06 	br	1e08 <___vfprintf_internal_r+0x78c>
    281c:	b809883a 	mov	r4,r23
    2820:	b00b883a 	mov	r5,r22
    2824:	d9801e04 	addi	r6,sp,120
    2828:	0008b4c0 	call	8b4c <__sprint_r>
    282c:	103c881e 	bne	r2,zero,1a50 <___vfprintf_internal_r+0x3d4>
    2830:	d8c02017 	ldw	r3,128(sp)
    2834:	da000404 	addi	r8,sp,16
    2838:	003d3906 	br	1d20 <___vfprintf_internal_r+0x6a4>
    283c:	b809883a 	mov	r4,r23
    2840:	b00b883a 	mov	r5,r22
    2844:	d9801e04 	addi	r6,sp,120
    2848:	0008b4c0 	call	8b4c <__sprint_r>
    284c:	103c801e 	bne	r2,zero,1a50 <___vfprintf_internal_r+0x3d4>
    2850:	d8c02017 	ldw	r3,128(sp)
    2854:	da000404 	addi	r8,sp,16
    2858:	003d3f06 	br	1d58 <___vfprintf_internal_r+0x6dc>
    285c:	d8c01e04 	addi	r3,sp,120
    2860:	0023883a 	mov	r17,zero
    2864:	d8c03115 	stw	r3,196(sp)
    2868:	003cdc06 	br	1bdc <___vfprintf_internal_r+0x560>
    286c:	d9403b17 	ldw	r5,236(sp)
    2870:	d8c01e04 	addi	r3,sp,120
    2874:	908003cc 	andi	r2,r18,15
    2878:	a808973a 	slli	r4,r21,28
    287c:	2885883a 	add	r2,r5,r2
    2880:	9024d13a 	srli	r18,r18,4
    2884:	10800003 	ldbu	r2,0(r2)
    2888:	a82ad13a 	srli	r21,r21,4
    288c:	18ffffc4 	addi	r3,r3,-1
    2890:	24a4b03a 	or	r18,r4,r18
    2894:	18800005 	stb	r2,0(r3)
    2898:	9544b03a 	or	r2,r18,r21
    289c:	103ff51e 	bne	r2,zero,2874 <___vfprintf_internal_r+0x11f8>
    28a0:	d9402817 	ldw	r5,160(sp)
    28a4:	d8c03115 	stw	r3,196(sp)
    28a8:	28e3c83a 	sub	r17,r5,r3
    28ac:	003ccb06 	br	1bdc <___vfprintf_internal_r+0x560>
    28b0:	dc002617 	ldw	r16,152(sp)
    28b4:	0401ab0e 	bge	zero,r16,2f64 <___vfprintf_internal_r+0x18e8>
    28b8:	d8803317 	ldw	r2,204(sp)
    28bc:	d9403117 	ldw	r5,196(sp)
    28c0:	d9003417 	ldw	r4,208(sp)
    28c4:	1023883a 	mov	r17,r2
    28c8:	28a1883a 	add	r16,r5,r2
    28cc:	2080010e 	bge	r4,r2,28d4 <___vfprintf_internal_r+0x1258>
    28d0:	2023883a 	mov	r17,r4
    28d4:	04400b0e 	bge	zero,r17,2904 <___vfprintf_internal_r+0x1288>
    28d8:	d8801f17 	ldw	r2,124(sp)
    28dc:	d9403117 	ldw	r5,196(sp)
    28e0:	1c47883a 	add	r3,r3,r17
    28e4:	10800044 	addi	r2,r2,1
    28e8:	41400015 	stw	r5,0(r8)
    28ec:	44400115 	stw	r17,4(r8)
    28f0:	d8c02015 	stw	r3,128(sp)
    28f4:	d8801f15 	stw	r2,124(sp)
    28f8:	010001c4 	movi	r4,7
    28fc:	20826716 	blt	r4,r2,329c <___vfprintf_internal_r+0x1c20>
    2900:	42000204 	addi	r8,r8,8
    2904:	88026316 	blt	r17,zero,3294 <___vfprintf_internal_r+0x1c18>
    2908:	d8803417 	ldw	r2,208(sp)
    290c:	1463c83a 	sub	r17,r2,r17
    2910:	0440590e 	bge	zero,r17,2a78 <___vfprintf_internal_r+0x13fc>
    2914:	04c00404 	movi	r19,16
    2918:	d8801f17 	ldw	r2,124(sp)
    291c:	9c41770e 	bge	r19,r17,2efc <___vfprintf_internal_r+0x1880>
    2920:	01400074 	movhi	r5,1
    2924:	2948d784 	addi	r5,r5,9054
    2928:	d9402c15 	stw	r5,176(sp)
    292c:	054001c4 	movi	r21,7
    2930:	00000306 	br	2940 <___vfprintf_internal_r+0x12c4>
    2934:	42000204 	addi	r8,r8,8
    2938:	8c7ffc04 	addi	r17,r17,-16
    293c:	9c41720e 	bge	r19,r17,2f08 <___vfprintf_internal_r+0x188c>
    2940:	18c00404 	addi	r3,r3,16
    2944:	10800044 	addi	r2,r2,1
    2948:	45000015 	stw	r20,0(r8)
    294c:	44c00115 	stw	r19,4(r8)
    2950:	d8c02015 	stw	r3,128(sp)
    2954:	d8801f15 	stw	r2,124(sp)
    2958:	a8bff60e 	bge	r21,r2,2934 <___vfprintf_internal_r+0x12b8>
    295c:	b809883a 	mov	r4,r23
    2960:	b00b883a 	mov	r5,r22
    2964:	d9801e04 	addi	r6,sp,120
    2968:	0008b4c0 	call	8b4c <__sprint_r>
    296c:	103c381e 	bne	r2,zero,1a50 <___vfprintf_internal_r+0x3d4>
    2970:	d8c02017 	ldw	r3,128(sp)
    2974:	d8801f17 	ldw	r2,124(sp)
    2978:	da000404 	addi	r8,sp,16
    297c:	003fee06 	br	2938 <___vfprintf_internal_r+0x12bc>
    2980:	b809883a 	mov	r4,r23
    2984:	b00b883a 	mov	r5,r22
    2988:	d9801e04 	addi	r6,sp,120
    298c:	0008b4c0 	call	8b4c <__sprint_r>
    2990:	103c2f1e 	bne	r2,zero,1a50 <___vfprintf_internal_r+0x3d4>
    2994:	d8c02017 	ldw	r3,128(sp)
    2998:	d8802787 	ldb	r2,158(sp)
    299c:	da000404 	addi	r8,sp,16
    29a0:	003cd206 	br	1cec <___vfprintf_internal_r+0x670>
    29a4:	00800084 	movi	r2,2
    29a8:	9546b03a 	or	r3,r18,r21
    29ac:	003d9f06 	br	202c <___vfprintf_internal_r+0x9b0>
    29b0:	d8803317 	ldw	r2,204(sp)
    29b4:	14ffffc4 	addi	r19,r2,-1
    29b8:	04ff600e 	bge	zero,r19,273c <___vfprintf_internal_r+0x10c0>
    29bc:	05400404 	movi	r21,16
    29c0:	acc07e0e 	bge	r21,r19,2bbc <___vfprintf_internal_r+0x1540>
    29c4:	01400074 	movhi	r5,1
    29c8:	2948d784 	addi	r5,r5,9054
    29cc:	d9402c15 	stw	r5,176(sp)
    29d0:	01c001c4 	movi	r7,7
    29d4:	00000306 	br	29e4 <___vfprintf_internal_r+0x1368>
    29d8:	8c400204 	addi	r17,r17,8
    29dc:	9cfffc04 	addi	r19,r19,-16
    29e0:	acc0790e 	bge	r21,r19,2bc8 <___vfprintf_internal_r+0x154c>
    29e4:	18c00404 	addi	r3,r3,16
    29e8:	84000044 	addi	r16,r16,1
    29ec:	8d000015 	stw	r20,0(r17)
    29f0:	8d400115 	stw	r21,4(r17)
    29f4:	d8c02015 	stw	r3,128(sp)
    29f8:	dc001f15 	stw	r16,124(sp)
    29fc:	3c3ff60e 	bge	r7,r16,29d8 <___vfprintf_internal_r+0x135c>
    2a00:	b809883a 	mov	r4,r23
    2a04:	b00b883a 	mov	r5,r22
    2a08:	d9801e04 	addi	r6,sp,120
    2a0c:	d9c03d15 	stw	r7,244(sp)
    2a10:	0008b4c0 	call	8b4c <__sprint_r>
    2a14:	d9c03d17 	ldw	r7,244(sp)
    2a18:	103c0d1e 	bne	r2,zero,1a50 <___vfprintf_internal_r+0x3d4>
    2a1c:	d8c02017 	ldw	r3,128(sp)
    2a20:	dc001f17 	ldw	r16,124(sp)
    2a24:	dc400404 	addi	r17,sp,16
    2a28:	003fec06 	br	29dc <___vfprintf_internal_r+0x1360>
    2a2c:	10803fcc 	andi	r2,r2,255
    2a30:	1080201c 	xori	r2,r2,128
    2a34:	10bfe004 	addi	r2,r2,-128
    2a38:	01000c04 	movi	r4,48
    2a3c:	1101d726 	beq	r2,r4,319c <___vfprintf_internal_r+0x1b20>
    2a40:	d9403117 	ldw	r5,196(sp)
    2a44:	d8802817 	ldw	r2,160(sp)
    2a48:	193fffc5 	stb	r4,-1(r3)
    2a4c:	297fffc4 	addi	r5,r5,-1
    2a50:	d9403115 	stw	r5,196(sp)
    2a54:	1163c83a 	sub	r17,r2,r5
    2a58:	003c6006 	br	1bdc <___vfprintf_internal_r+0x560>
    2a5c:	b809883a 	mov	r4,r23
    2a60:	b00b883a 	mov	r5,r22
    2a64:	d9801e04 	addi	r6,sp,120
    2a68:	0008b4c0 	call	8b4c <__sprint_r>
    2a6c:	103bf81e 	bne	r2,zero,1a50 <___vfprintf_internal_r+0x3d4>
    2a70:	d8c02017 	ldw	r3,128(sp)
    2a74:	da000404 	addi	r8,sp,16
    2a78:	d9403117 	ldw	r5,196(sp)
    2a7c:	d9003417 	ldw	r4,208(sp)
    2a80:	d8802617 	ldw	r2,152(sp)
    2a84:	2923883a 	add	r17,r5,r4
    2a88:	d9403317 	ldw	r5,204(sp)
    2a8c:	11400216 	blt	r2,r5,2a98 <___vfprintf_internal_r+0x141c>
    2a90:	e100004c 	andi	r4,fp,1
    2a94:	20000d26 	beq	r4,zero,2acc <___vfprintf_internal_r+0x1450>
    2a98:	d9003817 	ldw	r4,224(sp)
    2a9c:	d9403517 	ldw	r5,212(sp)
    2aa0:	1907883a 	add	r3,r3,r4
    2aa4:	d9001f17 	ldw	r4,124(sp)
    2aa8:	41400015 	stw	r5,0(r8)
    2aac:	d9403817 	ldw	r5,224(sp)
    2ab0:	21000044 	addi	r4,r4,1
    2ab4:	d8c02015 	stw	r3,128(sp)
    2ab8:	41400115 	stw	r5,4(r8)
    2abc:	d9001f15 	stw	r4,124(sp)
    2ac0:	014001c4 	movi	r5,7
    2ac4:	2901fd16 	blt	r5,r4,32bc <___vfprintf_internal_r+0x1c40>
    2ac8:	42000204 	addi	r8,r8,8
    2acc:	d9003317 	ldw	r4,204(sp)
    2ad0:	2085c83a 	sub	r2,r4,r2
    2ad4:	8449c83a 	sub	r4,r16,r17
    2ad8:	1021883a 	mov	r16,r2
    2adc:	2080010e 	bge	r4,r2,2ae4 <___vfprintf_internal_r+0x1468>
    2ae0:	2021883a 	mov	r16,r4
    2ae4:	04000a0e 	bge	zero,r16,2b10 <___vfprintf_internal_r+0x1494>
    2ae8:	d9001f17 	ldw	r4,124(sp)
    2aec:	1c07883a 	add	r3,r3,r16
    2af0:	44400015 	stw	r17,0(r8)
    2af4:	21000044 	addi	r4,r4,1
    2af8:	44000115 	stw	r16,4(r8)
    2afc:	d8c02015 	stw	r3,128(sp)
    2b00:	d9001f15 	stw	r4,124(sp)
    2b04:	014001c4 	movi	r5,7
    2b08:	29021816 	blt	r5,r4,336c <___vfprintf_internal_r+0x1cf0>
    2b0c:	42000204 	addi	r8,r8,8
    2b10:	80021016 	blt	r16,zero,3354 <___vfprintf_internal_r+0x1cd8>
    2b14:	1421c83a 	sub	r16,r2,r16
    2b18:	043cc80e 	bge	zero,r16,1e3c <___vfprintf_internal_r+0x7c0>
    2b1c:	04400404 	movi	r17,16
    2b20:	d8801f17 	ldw	r2,124(sp)
    2b24:	8c3f110e 	bge	r17,r16,276c <___vfprintf_internal_r+0x10f0>
    2b28:	01400074 	movhi	r5,1
    2b2c:	2948d784 	addi	r5,r5,9054
    2b30:	d9402c15 	stw	r5,176(sp)
    2b34:	04c001c4 	movi	r19,7
    2b38:	00000306 	br	2b48 <___vfprintf_internal_r+0x14cc>
    2b3c:	42000204 	addi	r8,r8,8
    2b40:	843ffc04 	addi	r16,r16,-16
    2b44:	8c3f0c0e 	bge	r17,r16,2778 <___vfprintf_internal_r+0x10fc>
    2b48:	18c00404 	addi	r3,r3,16
    2b4c:	10800044 	addi	r2,r2,1
    2b50:	45000015 	stw	r20,0(r8)
    2b54:	44400115 	stw	r17,4(r8)
    2b58:	d8c02015 	stw	r3,128(sp)
    2b5c:	d8801f15 	stw	r2,124(sp)
    2b60:	98bff60e 	bge	r19,r2,2b3c <___vfprintf_internal_r+0x14c0>
    2b64:	b809883a 	mov	r4,r23
    2b68:	b00b883a 	mov	r5,r22
    2b6c:	d9801e04 	addi	r6,sp,120
    2b70:	0008b4c0 	call	8b4c <__sprint_r>
    2b74:	103bb61e 	bne	r2,zero,1a50 <___vfprintf_internal_r+0x3d4>
    2b78:	d8c02017 	ldw	r3,128(sp)
    2b7c:	d8801f17 	ldw	r2,124(sp)
    2b80:	da000404 	addi	r8,sp,16
    2b84:	003fee06 	br	2b40 <___vfprintf_internal_r+0x14c4>
    2b88:	e088703a 	and	r4,fp,r2
    2b8c:	203ec01e 	bne	r4,zero,2690 <___vfprintf_internal_r+0x1014>
    2b90:	dc001f17 	ldw	r16,124(sp)
    2b94:	d9003117 	ldw	r4,196(sp)
    2b98:	40800115 	stw	r2,4(r8)
    2b9c:	84000044 	addi	r16,r16,1
    2ba0:	41000015 	stw	r4,0(r8)
    2ba4:	d8c02015 	stw	r3,128(sp)
    2ba8:	dc001f15 	stw	r16,124(sp)
    2bac:	008001c4 	movi	r2,7
    2bb0:	14000e16 	blt	r2,r16,2bec <___vfprintf_internal_r+0x1570>
    2bb4:	44400204 	addi	r17,r8,8
    2bb8:	003ee006 	br	273c <___vfprintf_internal_r+0x10c0>
    2bbc:	01000074 	movhi	r4,1
    2bc0:	2108d784 	addi	r4,r4,9054
    2bc4:	d9002c15 	stw	r4,176(sp)
    2bc8:	d8802c17 	ldw	r2,176(sp)
    2bcc:	1cc7883a 	add	r3,r3,r19
    2bd0:	84000044 	addi	r16,r16,1
    2bd4:	88800015 	stw	r2,0(r17)
    2bd8:	8cc00115 	stw	r19,4(r17)
    2bdc:	d8c02015 	stw	r3,128(sp)
    2be0:	dc001f15 	stw	r16,124(sp)
    2be4:	008001c4 	movi	r2,7
    2be8:	143ed30e 	bge	r2,r16,2738 <___vfprintf_internal_r+0x10bc>
    2bec:	b809883a 	mov	r4,r23
    2bf0:	b00b883a 	mov	r5,r22
    2bf4:	d9801e04 	addi	r6,sp,120
    2bf8:	0008b4c0 	call	8b4c <__sprint_r>
    2bfc:	103b941e 	bne	r2,zero,1a50 <___vfprintf_internal_r+0x3d4>
    2c00:	d8c02017 	ldw	r3,128(sp)
    2c04:	dc001f17 	ldw	r16,124(sp)
    2c08:	dc400404 	addi	r17,sp,16
    2c0c:	003ecb06 	br	273c <___vfprintf_internal_r+0x10c0>
    2c10:	b809883a 	mov	r4,r23
    2c14:	b00b883a 	mov	r5,r22
    2c18:	d9801e04 	addi	r6,sp,120
    2c1c:	0008b4c0 	call	8b4c <__sprint_r>
    2c20:	103b8b1e 	bne	r2,zero,1a50 <___vfprintf_internal_r+0x3d4>
    2c24:	d8c02017 	ldw	r3,128(sp)
    2c28:	dc001f17 	ldw	r16,124(sp)
    2c2c:	da000404 	addi	r8,sp,16
    2c30:	003ea206 	br	26bc <___vfprintf_internal_r+0x1040>
    2c34:	b809883a 	mov	r4,r23
    2c38:	b00b883a 	mov	r5,r22
    2c3c:	d9801e04 	addi	r6,sp,120
    2c40:	0008b4c0 	call	8b4c <__sprint_r>
    2c44:	103b821e 	bne	r2,zero,1a50 <___vfprintf_internal_r+0x3d4>
    2c48:	d8c02017 	ldw	r3,128(sp)
    2c4c:	dc001f17 	ldw	r16,124(sp)
    2c50:	dc400404 	addi	r17,sp,16
    2c54:	003ea406 	br	26e8 <___vfprintf_internal_r+0x106c>
    2c58:	b809883a 	mov	r4,r23
    2c5c:	b00b883a 	mov	r5,r22
    2c60:	d9801e04 	addi	r6,sp,120
    2c64:	0008b4c0 	call	8b4c <__sprint_r>
    2c68:	103b791e 	bne	r2,zero,1a50 <___vfprintf_internal_r+0x3d4>
    2c6c:	d8c02017 	ldw	r3,128(sp)
    2c70:	da000404 	addi	r8,sp,16
    2c74:	003c3b06 	br	1d64 <___vfprintf_internal_r+0x6e8>
    2c78:	04a5c83a 	sub	r18,zero,r18
    2c7c:	9004c03a 	cmpne	r2,r18,zero
    2c80:	056bc83a 	sub	r21,zero,r21
    2c84:	a8abc83a 	sub	r21,r21,r2
    2c88:	04c00b44 	movi	r19,45
    2c8c:	dcc02785 	stb	r19,158(sp)
    2c90:	da403215 	stw	r9,200(sp)
    2c94:	00800044 	movi	r2,1
    2c98:	9546b03a 	or	r3,r18,r21
    2c9c:	003bb506 	br	1b74 <___vfprintf_internal_r+0x4f8>
    2ca0:	da003f15 	stw	r8,252(sp)
    2ca4:	da403e15 	stw	r9,248(sp)
    2ca8:	00087a80 	call	87a8 <__fpclassifyd>
    2cac:	da003f17 	ldw	r8,252(sp)
    2cb0:	da403e17 	ldw	r9,248(sp)
    2cb4:	1000e526 	beq	r2,zero,304c <___vfprintf_internal_r+0x19d0>
    2cb8:	04fff7c4 	movi	r19,-33
    2cbc:	00bfffc4 	movi	r2,-1
    2cc0:	84e6703a 	and	r19,r16,r19
    2cc4:	48822526 	beq	r9,r2,355c <___vfprintf_internal_r+0x1ee0>
    2cc8:	008011c4 	movi	r2,71
    2ccc:	98821626 	beq	r19,r2,3528 <___vfprintf_internal_r+0x1eac>
    2cd0:	d9003917 	ldw	r4,228(sp)
    2cd4:	e0c04014 	ori	r3,fp,256
    2cd8:	d8c02d15 	stw	r3,180(sp)
    2cdc:	20022116 	blt	r4,zero,3564 <___vfprintf_internal_r+0x1ee8>
    2ce0:	dc403917 	ldw	r17,228(sp)
    2ce4:	d8002b05 	stb	zero,172(sp)
    2ce8:	00801984 	movi	r2,102
    2cec:	80814d26 	beq	r16,r2,3224 <___vfprintf_internal_r+0x1ba8>
    2cf0:	00801184 	movi	r2,70
    2cf4:	80814b26 	beq	r16,r2,3224 <___vfprintf_internal_r+0x1ba8>
    2cf8:	00801144 	movi	r2,69
    2cfc:	98822626 	beq	r19,r2,3598 <___vfprintf_internal_r+0x1f1c>
    2d00:	482b883a 	mov	r21,r9
    2d04:	d8802604 	addi	r2,sp,152
    2d08:	d8800115 	stw	r2,4(sp)
    2d0c:	d9403717 	ldw	r5,220(sp)
    2d10:	d8802504 	addi	r2,sp,148
    2d14:	d8800215 	stw	r2,8(sp)
    2d18:	d8802104 	addi	r2,sp,132
    2d1c:	dd400015 	stw	r21,0(sp)
    2d20:	d8800315 	stw	r2,12(sp)
    2d24:	b809883a 	mov	r4,r23
    2d28:	880d883a 	mov	r6,r17
    2d2c:	01c00084 	movi	r7,2
    2d30:	da003f15 	stw	r8,252(sp)
    2d34:	da403e15 	stw	r9,248(sp)
    2d38:	0003b300 	call	3b30 <_dtoa_r>
    2d3c:	d8803115 	stw	r2,196(sp)
    2d40:	008019c4 	movi	r2,103
    2d44:	da003f17 	ldw	r8,252(sp)
    2d48:	da403e17 	ldw	r9,248(sp)
    2d4c:	80800226 	beq	r16,r2,2d58 <___vfprintf_internal_r+0x16dc>
    2d50:	008011c4 	movi	r2,71
    2d54:	8081451e 	bne	r16,r2,326c <___vfprintf_internal_r+0x1bf0>
    2d58:	e080004c 	andi	r2,fp,1
    2d5c:	10021e26 	beq	r2,zero,35d8 <___vfprintf_internal_r+0x1f5c>
    2d60:	d8c03117 	ldw	r3,196(sp)
    2d64:	1d55883a 	add	r10,r3,r21
    2d68:	d9003717 	ldw	r4,220(sp)
    2d6c:	880b883a 	mov	r5,r17
    2d70:	000d883a 	mov	r6,zero
    2d74:	000f883a 	mov	r7,zero
    2d78:	da003f15 	stw	r8,252(sp)
    2d7c:	da403e15 	stw	r9,248(sp)
    2d80:	da803d15 	stw	r10,244(sp)
    2d84:	000c7e40 	call	c7e4 <__eqdf2>
    2d88:	da003f17 	ldw	r8,252(sp)
    2d8c:	da403e17 	ldw	r9,248(sp)
    2d90:	da803d17 	ldw	r10,244(sp)
    2d94:	1001a126 	beq	r2,zero,341c <___vfprintf_internal_r+0x1da0>
    2d98:	d8802117 	ldw	r2,132(sp)
    2d9c:	1280062e 	bgeu	r2,r10,2db8 <___vfprintf_internal_r+0x173c>
    2da0:	01000c04 	movi	r4,48
    2da4:	10c00044 	addi	r3,r2,1
    2da8:	d8c02115 	stw	r3,132(sp)
    2dac:	11000005 	stb	r4,0(r2)
    2db0:	d8802117 	ldw	r2,132(sp)
    2db4:	12bffb36 	bltu	r2,r10,2da4 <___vfprintf_internal_r+0x1728>
    2db8:	d8c03117 	ldw	r3,196(sp)
    2dbc:	10c5c83a 	sub	r2,r2,r3
    2dc0:	d8803315 	stw	r2,204(sp)
    2dc4:	008011c4 	movi	r2,71
    2dc8:	98817f26 	beq	r19,r2,33c8 <___vfprintf_internal_r+0x1d4c>
    2dcc:	00801944 	movi	r2,101
    2dd0:	14023e0e 	bge	r2,r16,36cc <___vfprintf_internal_r+0x2050>
    2dd4:	d8c02617 	ldw	r3,152(sp)
    2dd8:	00801984 	movi	r2,102
    2ddc:	d8c03415 	stw	r3,208(sp)
    2de0:	8081f326 	beq	r16,r2,35b0 <___vfprintf_internal_r+0x1f34>
    2de4:	d8c03417 	ldw	r3,208(sp)
    2de8:	d9003317 	ldw	r4,204(sp)
    2dec:	1901e116 	blt	r3,r4,3574 <___vfprintf_internal_r+0x1ef8>
    2df0:	e080004c 	andi	r2,fp,1
    2df4:	1001ea26 	beq	r2,zero,35a0 <___vfprintf_internal_r+0x1f24>
    2df8:	d8c03417 	ldw	r3,208(sp)
    2dfc:	1c400044 	addi	r17,r3,1
    2e00:	8839883a 	mov	fp,r17
    2e04:	8801e216 	blt	r17,zero,3590 <___vfprintf_internal_r+0x1f14>
    2e08:	dd402b07 	ldb	r21,172(sp)
    2e0c:	a801661e 	bne	r21,zero,33a8 <___vfprintf_internal_r+0x1d2c>
    2e10:	df002b15 	stw	fp,172(sp)
    2e14:	dcc02783 	ldbu	r19,158(sp)
    2e18:	df002d17 	ldw	fp,180(sp)
    2e1c:	d8003215 	stw	zero,200(sp)
    2e20:	dc802d15 	stw	r18,180(sp)
    2e24:	003b7206 	br	1bf0 <___vfprintf_internal_r+0x574>
    2e28:	e4000007 	ldb	r16,0(fp)
    2e2c:	e005883a 	mov	r2,fp
    2e30:	003a7806 	br	1814 <___vfprintf_internal_r+0x198>
    2e34:	e0c0100c 	andi	r3,fp,64
    2e38:	1800b326 	beq	r3,zero,3108 <___vfprintf_internal_r+0x1a8c>
    2e3c:	d9002d17 	ldw	r4,180(sp)
    2e40:	1480000b 	ldhu	r18,0(r2)
    2e44:	002b883a 	mov	r21,zero
    2e48:	21000104 	addi	r4,r4,4
    2e4c:	d9002d15 	stw	r4,180(sp)
    2e50:	003cd506 	br	21a8 <___vfprintf_internal_r+0xb2c>
    2e54:	e080100c 	andi	r2,fp,64
    2e58:	1000a326 	beq	r2,zero,30e8 <___vfprintf_internal_r+0x1a6c>
    2e5c:	d8802d17 	ldw	r2,180(sp)
    2e60:	002b883a 	mov	r21,zero
    2e64:	1480000b 	ldhu	r18,0(r2)
    2e68:	10800104 	addi	r2,r2,4
    2e6c:	d8802d15 	stw	r2,180(sp)
    2e70:	9007883a 	mov	r3,r18
    2e74:	00800044 	movi	r2,1
    2e78:	003c6c06 	br	202c <___vfprintf_internal_r+0x9b0>
    2e7c:	e080100c 	andi	r2,fp,64
    2e80:	10009226 	beq	r2,zero,30cc <___vfprintf_internal_r+0x1a50>
    2e84:	1c80000f 	ldh	r18,0(r3)
    2e88:	d8802d17 	ldw	r2,180(sp)
    2e8c:	902bd7fa 	srai	r21,r18,31
    2e90:	10800104 	addi	r2,r2,4
    2e94:	d8802d15 	stw	r2,180(sp)
    2e98:	a805883a 	mov	r2,r21
    2e9c:	003b3006 	br	1b60 <___vfprintf_internal_r+0x4e4>
    2ea0:	e080100c 	andi	r2,fp,64
    2ea4:	10008126 	beq	r2,zero,30ac <___vfprintf_internal_r+0x1a30>
    2ea8:	d8c02d17 	ldw	r3,180(sp)
    2eac:	002b883a 	mov	r21,zero
    2eb0:	0005883a 	mov	r2,zero
    2eb4:	1c80000b 	ldhu	r18,0(r3)
    2eb8:	18c00104 	addi	r3,r3,4
    2ebc:	d8c02d15 	stw	r3,180(sp)
    2ec0:	9007883a 	mov	r3,r18
    2ec4:	003c5906 	br	202c <___vfprintf_internal_r+0x9b0>
    2ec8:	e080040c 	andi	r2,fp,16
    2ecc:	1000701e 	bne	r2,zero,3090 <___vfprintf_internal_r+0x1a14>
    2ed0:	e080100c 	andi	r2,fp,64
    2ed4:	10014626 	beq	r2,zero,33f0 <___vfprintf_internal_r+0x1d74>
    2ed8:	d9002d17 	ldw	r4,180(sp)
    2edc:	d9402f17 	ldw	r5,188(sp)
    2ee0:	20800017 	ldw	r2,0(r4)
    2ee4:	21000104 	addi	r4,r4,4
    2ee8:	d9002d15 	stw	r4,180(sp)
    2eec:	1140000d 	sth	r5,0(r2)
    2ef0:	003a1d06 	br	1768 <___vfprintf_internal_r+0xec>
    2ef4:	00800084 	movi	r2,2
    2ef8:	003c4c06 	br	202c <___vfprintf_internal_r+0x9b0>
    2efc:	01000074 	movhi	r4,1
    2f00:	2108d784 	addi	r4,r4,9054
    2f04:	d9002c15 	stw	r4,176(sp)
    2f08:	d9002c17 	ldw	r4,176(sp)
    2f0c:	1c47883a 	add	r3,r3,r17
    2f10:	10800044 	addi	r2,r2,1
    2f14:	41000015 	stw	r4,0(r8)
    2f18:	44400115 	stw	r17,4(r8)
    2f1c:	d8c02015 	stw	r3,128(sp)
    2f20:	d8801f15 	stw	r2,124(sp)
    2f24:	010001c4 	movi	r4,7
    2f28:	20becc16 	blt	r4,r2,2a5c <___vfprintf_internal_r+0x13e0>
    2f2c:	42000204 	addi	r8,r8,8
    2f30:	003ed106 	br	2a78 <___vfprintf_internal_r+0x13fc>
    2f34:	01000074 	movhi	r4,1
    2f38:	2108d784 	addi	r4,r4,9054
    2f3c:	d9002c15 	stw	r4,176(sp)
    2f40:	003ba706 	br	1de0 <___vfprintf_internal_r+0x764>
    2f44:	b809883a 	mov	r4,r23
    2f48:	b00b883a 	mov	r5,r22
    2f4c:	d9801e04 	addi	r6,sp,120
    2f50:	0008b4c0 	call	8b4c <__sprint_r>
    2f54:	103abe1e 	bne	r2,zero,1a50 <___vfprintf_internal_r+0x3d4>
    2f58:	d8c02017 	ldw	r3,128(sp)
    2f5c:	da000404 	addi	r8,sp,16
    2f60:	003d6c06 	br	2514 <___vfprintf_internal_r+0xe98>
    2f64:	d8801f17 	ldw	r2,124(sp)
    2f68:	01400074 	movhi	r5,1
    2f6c:	01000044 	movi	r4,1
    2f70:	18c00044 	addi	r3,r3,1
    2f74:	10800044 	addi	r2,r2,1
    2f78:	2948d704 	addi	r5,r5,9052
    2f7c:	41000115 	stw	r4,4(r8)
    2f80:	41400015 	stw	r5,0(r8)
    2f84:	d8c02015 	stw	r3,128(sp)
    2f88:	d8801f15 	stw	r2,124(sp)
    2f8c:	010001c4 	movi	r4,7
    2f90:	20806716 	blt	r4,r2,3130 <___vfprintf_internal_r+0x1ab4>
    2f94:	42000204 	addi	r8,r8,8
    2f98:	8000041e 	bne	r16,zero,2fac <___vfprintf_internal_r+0x1930>
    2f9c:	d8803317 	ldw	r2,204(sp)
    2fa0:	1000021e 	bne	r2,zero,2fac <___vfprintf_internal_r+0x1930>
    2fa4:	e080004c 	andi	r2,fp,1
    2fa8:	103ba426 	beq	r2,zero,1e3c <___vfprintf_internal_r+0x7c0>
    2fac:	d9003817 	ldw	r4,224(sp)
    2fb0:	d8801f17 	ldw	r2,124(sp)
    2fb4:	d9403517 	ldw	r5,212(sp)
    2fb8:	1907883a 	add	r3,r3,r4
    2fbc:	10800044 	addi	r2,r2,1
    2fc0:	41000115 	stw	r4,4(r8)
    2fc4:	41400015 	stw	r5,0(r8)
    2fc8:	d8c02015 	stw	r3,128(sp)
    2fcc:	d8801f15 	stw	r2,124(sp)
    2fd0:	010001c4 	movi	r4,7
    2fd4:	20815716 	blt	r4,r2,3534 <___vfprintf_internal_r+0x1eb8>
    2fd8:	42000204 	addi	r8,r8,8
    2fdc:	0421c83a 	sub	r16,zero,r16
    2fe0:	0400810e 	bge	zero,r16,31e8 <___vfprintf_internal_r+0x1b6c>
    2fe4:	04400404 	movi	r17,16
    2fe8:	8c00bd0e 	bge	r17,r16,32e0 <___vfprintf_internal_r+0x1c64>
    2fec:	01400074 	movhi	r5,1
    2ff0:	2948d784 	addi	r5,r5,9054
    2ff4:	d9402c15 	stw	r5,176(sp)
    2ff8:	04c001c4 	movi	r19,7
    2ffc:	00000306 	br	300c <___vfprintf_internal_r+0x1990>
    3000:	42000204 	addi	r8,r8,8
    3004:	843ffc04 	addi	r16,r16,-16
    3008:	8c00b80e 	bge	r17,r16,32ec <___vfprintf_internal_r+0x1c70>
    300c:	18c00404 	addi	r3,r3,16
    3010:	10800044 	addi	r2,r2,1
    3014:	45000015 	stw	r20,0(r8)
    3018:	44400115 	stw	r17,4(r8)
    301c:	d8c02015 	stw	r3,128(sp)
    3020:	d8801f15 	stw	r2,124(sp)
    3024:	98bff60e 	bge	r19,r2,3000 <___vfprintf_internal_r+0x1984>
    3028:	b809883a 	mov	r4,r23
    302c:	b00b883a 	mov	r5,r22
    3030:	d9801e04 	addi	r6,sp,120
    3034:	0008b4c0 	call	8b4c <__sprint_r>
    3038:	103a851e 	bne	r2,zero,1a50 <___vfprintf_internal_r+0x3d4>
    303c:	d8c02017 	ldw	r3,128(sp)
    3040:	d8801f17 	ldw	r2,124(sp)
    3044:	da000404 	addi	r8,sp,16
    3048:	003fee06 	br	3004 <___vfprintf_internal_r+0x1988>
    304c:	008011c4 	movi	r2,71
    3050:	1400d116 	blt	r2,r16,3398 <___vfprintf_internal_r+0x1d1c>
    3054:	01000074 	movhi	r4,1
    3058:	2108c904 	addi	r4,r4,8996
    305c:	d9003115 	stw	r4,196(sp)
    3060:	00c000c4 	movi	r3,3
    3064:	00bfdfc4 	movi	r2,-129
    3068:	d8c02b15 	stw	r3,172(sp)
    306c:	e0b8703a 	and	fp,fp,r2
    3070:	dcc02783 	ldbu	r19,158(sp)
    3074:	dc802d15 	stw	r18,180(sp)
    3078:	1823883a 	mov	r17,r3
    307c:	d8003215 	stw	zero,200(sp)
    3080:	d8003415 	stw	zero,208(sp)
    3084:	003ada06 	br	1bf0 <___vfprintf_internal_r+0x574>
    3088:	4823883a 	mov	r17,r9
    308c:	003c9406 	br	22e0 <___vfprintf_internal_r+0xc64>
    3090:	d9402d17 	ldw	r5,180(sp)
    3094:	d8c02f17 	ldw	r3,188(sp)
    3098:	28800017 	ldw	r2,0(r5)
    309c:	29400104 	addi	r5,r5,4
    30a0:	d9402d15 	stw	r5,180(sp)
    30a4:	10c00015 	stw	r3,0(r2)
    30a8:	0039af06 	br	1768 <___vfprintf_internal_r+0xec>
    30ac:	d9002d17 	ldw	r4,180(sp)
    30b0:	002b883a 	mov	r21,zero
    30b4:	0005883a 	mov	r2,zero
    30b8:	24800017 	ldw	r18,0(r4)
    30bc:	21000104 	addi	r4,r4,4
    30c0:	d9002d15 	stw	r4,180(sp)
    30c4:	9007883a 	mov	r3,r18
    30c8:	003bd806 	br	202c <___vfprintf_internal_r+0x9b0>
    30cc:	1c800017 	ldw	r18,0(r3)
    30d0:	d8c02d17 	ldw	r3,180(sp)
    30d4:	902bd7fa 	srai	r21,r18,31
    30d8:	18c00104 	addi	r3,r3,4
    30dc:	d8c02d15 	stw	r3,180(sp)
    30e0:	a805883a 	mov	r2,r21
    30e4:	003a9e06 	br	1b60 <___vfprintf_internal_r+0x4e4>
    30e8:	d8c02d17 	ldw	r3,180(sp)
    30ec:	002b883a 	mov	r21,zero
    30f0:	00800044 	movi	r2,1
    30f4:	1c800017 	ldw	r18,0(r3)
    30f8:	18c00104 	addi	r3,r3,4
    30fc:	d8c02d15 	stw	r3,180(sp)
    3100:	9007883a 	mov	r3,r18
    3104:	003bc906 	br	202c <___vfprintf_internal_r+0x9b0>
    3108:	d9402d17 	ldw	r5,180(sp)
    310c:	14800017 	ldw	r18,0(r2)
    3110:	002b883a 	mov	r21,zero
    3114:	29400104 	addi	r5,r5,4
    3118:	d9402d15 	stw	r5,180(sp)
    311c:	003c2206 	br	21a8 <___vfprintf_internal_r+0xb2c>
    3120:	01000074 	movhi	r4,1
    3124:	2108c704 	addi	r4,r4,8988
    3128:	d9003115 	stw	r4,196(sp)
    312c:	003ba606 	br	1fc8 <___vfprintf_internal_r+0x94c>
    3130:	b809883a 	mov	r4,r23
    3134:	b00b883a 	mov	r5,r22
    3138:	d9801e04 	addi	r6,sp,120
    313c:	0008b4c0 	call	8b4c <__sprint_r>
    3140:	103a431e 	bne	r2,zero,1a50 <___vfprintf_internal_r+0x3d4>
    3144:	dc002617 	ldw	r16,152(sp)
    3148:	d8c02017 	ldw	r3,128(sp)
    314c:	da000404 	addi	r8,sp,16
    3150:	003f9106 	br	2f98 <___vfprintf_internal_r+0x191c>
    3154:	d8802e17 	ldw	r2,184(sp)
    3158:	d8c02d15 	stw	r3,180(sp)
    315c:	0085c83a 	sub	r2,zero,r2
    3160:	d8802e15 	stw	r2,184(sp)
    3164:	e005883a 	mov	r2,fp
    3168:	003a4206 	br	1a74 <___vfprintf_internal_r+0x3f8>
    316c:	e0800044 	addi	r2,fp,1
    3170:	9cc00814 	ori	r19,r19,32
    3174:	e4000047 	ldb	r16,1(fp)
    3178:	0039a606 	br	1814 <___vfprintf_internal_r+0x198>
    317c:	b809883a 	mov	r4,r23
    3180:	b00b883a 	mov	r5,r22
    3184:	d9801e04 	addi	r6,sp,120
    3188:	0008b4c0 	call	8b4c <__sprint_r>
    318c:	103a301e 	bne	r2,zero,1a50 <___vfprintf_internal_r+0x3d4>
    3190:	d8c02017 	ldw	r3,128(sp)
    3194:	da000404 	addi	r8,sp,16
    3198:	003cf006 	br	255c <___vfprintf_internal_r+0xee0>
    319c:	d8c02817 	ldw	r3,160(sp)
    31a0:	d9003117 	ldw	r4,196(sp)
    31a4:	1923c83a 	sub	r17,r3,r4
    31a8:	003a8c06 	br	1bdc <___vfprintf_internal_r+0x560>
    31ac:	da003f15 	stw	r8,252(sp)
    31b0:	00015e40 	call	15e4 <strlen>
    31b4:	1023883a 	mov	r17,r2
    31b8:	da003f17 	ldw	r8,252(sp)
    31bc:	883c4a0e 	bge	r17,zero,22e8 <___vfprintf_internal_r+0xc6c>
    31c0:	0005883a 	mov	r2,zero
    31c4:	003c4806 	br	22e8 <___vfprintf_internal_r+0xc6c>
    31c8:	b809883a 	mov	r4,r23
    31cc:	b00b883a 	mov	r5,r22
    31d0:	d9801e04 	addi	r6,sp,120
    31d4:	0008b4c0 	call	8b4c <__sprint_r>
    31d8:	103a1d1e 	bne	r2,zero,1a50 <___vfprintf_internal_r+0x3d4>
    31dc:	d8c02017 	ldw	r3,128(sp)
    31e0:	d8801f17 	ldw	r2,124(sp)
    31e4:	da000404 	addi	r8,sp,16
    31e8:	d9403317 	ldw	r5,204(sp)
    31ec:	d9003117 	ldw	r4,196(sp)
    31f0:	10800044 	addi	r2,r2,1
    31f4:	1947883a 	add	r3,r3,r5
    31f8:	41000015 	stw	r4,0(r8)
    31fc:	41400115 	stw	r5,4(r8)
    3200:	d8c02015 	stw	r3,128(sp)
    3204:	d8801f15 	stw	r2,124(sp)
    3208:	010001c4 	movi	r4,7
    320c:	20bb0a0e 	bge	r4,r2,1e38 <___vfprintf_internal_r+0x7bc>
    3210:	003d6206 	br	279c <___vfprintf_internal_r+0x1120>
    3214:	01000074 	movhi	r4,1
    3218:	2108db84 	addi	r4,r4,9070
    321c:	d9003615 	stw	r4,216(sp)
    3220:	003aa706 	br	1cc0 <___vfprintf_internal_r+0x644>
    3224:	d8802604 	addi	r2,sp,152
    3228:	d8800115 	stw	r2,4(sp)
    322c:	d9403717 	ldw	r5,220(sp)
    3230:	d8802504 	addi	r2,sp,148
    3234:	d8800215 	stw	r2,8(sp)
    3238:	d8802104 	addi	r2,sp,132
    323c:	da400015 	stw	r9,0(sp)
    3240:	d8800315 	stw	r2,12(sp)
    3244:	b809883a 	mov	r4,r23
    3248:	880d883a 	mov	r6,r17
    324c:	01c000c4 	movi	r7,3
    3250:	da003f15 	stw	r8,252(sp)
    3254:	da403e15 	stw	r9,248(sp)
    3258:	0003b300 	call	3b30 <_dtoa_r>
    325c:	da403e17 	ldw	r9,248(sp)
    3260:	da003f17 	ldw	r8,252(sp)
    3264:	d8803115 	stw	r2,196(sp)
    3268:	482b883a 	mov	r21,r9
    326c:	d8c03117 	ldw	r3,196(sp)
    3270:	00801184 	movi	r2,70
    3274:	1d55883a 	add	r10,r3,r21
    3278:	98bebb1e 	bne	r19,r2,2d68 <___vfprintf_internal_r+0x16ec>
    327c:	19000007 	ldb	r4,0(r3)
    3280:	00800c04 	movi	r2,48
    3284:	2080df26 	beq	r4,r2,3604 <___vfprintf_internal_r+0x1f88>
    3288:	d8c02617 	ldw	r3,152(sp)
    328c:	50d5883a 	add	r10,r10,r3
    3290:	003eb506 	br	2d68 <___vfprintf_internal_r+0x16ec>
    3294:	0023883a 	mov	r17,zero
    3298:	003d9b06 	br	2908 <___vfprintf_internal_r+0x128c>
    329c:	b809883a 	mov	r4,r23
    32a0:	b00b883a 	mov	r5,r22
    32a4:	d9801e04 	addi	r6,sp,120
    32a8:	0008b4c0 	call	8b4c <__sprint_r>
    32ac:	1039e81e 	bne	r2,zero,1a50 <___vfprintf_internal_r+0x3d4>
    32b0:	d8c02017 	ldw	r3,128(sp)
    32b4:	da000404 	addi	r8,sp,16
    32b8:	003d9206 	br	2904 <___vfprintf_internal_r+0x1288>
    32bc:	b809883a 	mov	r4,r23
    32c0:	b00b883a 	mov	r5,r22
    32c4:	d9801e04 	addi	r6,sp,120
    32c8:	0008b4c0 	call	8b4c <__sprint_r>
    32cc:	1039e01e 	bne	r2,zero,1a50 <___vfprintf_internal_r+0x3d4>
    32d0:	d8802617 	ldw	r2,152(sp)
    32d4:	d8c02017 	ldw	r3,128(sp)
    32d8:	da000404 	addi	r8,sp,16
    32dc:	003dfb06 	br	2acc <___vfprintf_internal_r+0x1450>
    32e0:	01000074 	movhi	r4,1
    32e4:	2108d784 	addi	r4,r4,9054
    32e8:	d9002c15 	stw	r4,176(sp)
    32ec:	d9002c17 	ldw	r4,176(sp)
    32f0:	1c07883a 	add	r3,r3,r16
    32f4:	10800044 	addi	r2,r2,1
    32f8:	41000015 	stw	r4,0(r8)
    32fc:	44000115 	stw	r16,4(r8)
    3300:	d8c02015 	stw	r3,128(sp)
    3304:	d8801f15 	stw	r2,124(sp)
    3308:	010001c4 	movi	r4,7
    330c:	20bfae16 	blt	r4,r2,31c8 <___vfprintf_internal_r+0x1b4c>
    3310:	42000204 	addi	r8,r8,8
    3314:	003fb406 	br	31e8 <___vfprintf_internal_r+0x1b6c>
    3318:	00800184 	movi	r2,6
    331c:	1240012e 	bgeu	r2,r9,3324 <___vfprintf_internal_r+0x1ca8>
    3320:	1013883a 	mov	r9,r2
    3324:	4823883a 	mov	r17,r9
    3328:	4805883a 	mov	r2,r9
    332c:	4800ac16 	blt	r9,zero,35e0 <___vfprintf_internal_r+0x1f64>
    3330:	01400074 	movhi	r5,1
    3334:	2948d504 	addi	r5,r5,9044
    3338:	d8802b15 	stw	r2,172(sp)
    333c:	dc802d15 	stw	r18,180(sp)
    3340:	d8003215 	stw	zero,200(sp)
    3344:	d8003415 	stw	zero,208(sp)
    3348:	d9403115 	stw	r5,196(sp)
    334c:	0005883a 	mov	r2,zero
    3350:	003a2e06 	br	1c0c <___vfprintf_internal_r+0x590>
    3354:	0021883a 	mov	r16,zero
    3358:	003dee06 	br	2b14 <___vfprintf_internal_r+0x1498>
    335c:	01400074 	movhi	r5,1
    3360:	2948db84 	addi	r5,r5,9070
    3364:	d9403615 	stw	r5,216(sp)
    3368:	003ad806 	br	1ecc <___vfprintf_internal_r+0x850>
    336c:	b809883a 	mov	r4,r23
    3370:	b00b883a 	mov	r5,r22
    3374:	d9801e04 	addi	r6,sp,120
    3378:	0008b4c0 	call	8b4c <__sprint_r>
    337c:	1039b41e 	bne	r2,zero,1a50 <___vfprintf_internal_r+0x3d4>
    3380:	d8802617 	ldw	r2,152(sp)
    3384:	d9403317 	ldw	r5,204(sp)
    3388:	d8c02017 	ldw	r3,128(sp)
    338c:	da000404 	addi	r8,sp,16
    3390:	2885c83a 	sub	r2,r5,r2
    3394:	003dde06 	br	2b10 <___vfprintf_internal_r+0x1494>
    3398:	01400074 	movhi	r5,1
    339c:	2948ca04 	addi	r5,r5,9000
    33a0:	d9403115 	stw	r5,196(sp)
    33a4:	003f2e06 	br	3060 <___vfprintf_internal_r+0x19e4>
    33a8:	00800b44 	movi	r2,45
    33ac:	d8802785 	stb	r2,158(sp)
    33b0:	df002b15 	stw	fp,172(sp)
    33b4:	d8003215 	stw	zero,200(sp)
    33b8:	df002d17 	ldw	fp,180(sp)
    33bc:	00800b44 	movi	r2,45
    33c0:	dc802d15 	stw	r18,180(sp)
    33c4:	003a0e06 	br	1c00 <___vfprintf_internal_r+0x584>
    33c8:	d8c02617 	ldw	r3,152(sp)
    33cc:	00bfff44 	movi	r2,-3
    33d0:	18801b16 	blt	r3,r2,3440 <___vfprintf_internal_r+0x1dc4>
    33d4:	48c01a16 	blt	r9,r3,3440 <___vfprintf_internal_r+0x1dc4>
    33d8:	d8c03415 	stw	r3,208(sp)
    33dc:	040019c4 	movi	r16,103
    33e0:	003e8006 	br	2de4 <___vfprintf_internal_r+0x1768>
    33e4:	04c00b44 	movi	r19,45
    33e8:	dcc02785 	stb	r19,158(sp)
    33ec:	003af106 	br	1fb4 <___vfprintf_internal_r+0x938>
    33f0:	d8c02d17 	ldw	r3,180(sp)
    33f4:	d9002f17 	ldw	r4,188(sp)
    33f8:	18800017 	ldw	r2,0(r3)
    33fc:	18c00104 	addi	r3,r3,4
    3400:	d8c02d15 	stw	r3,180(sp)
    3404:	11000015 	stw	r4,0(r2)
    3408:	0038d706 	br	1768 <___vfprintf_internal_r+0xec>
    340c:	01000074 	movhi	r4,1
    3410:	2108d784 	addi	r4,r4,9054
    3414:	d9002c15 	stw	r4,176(sp)
    3418:	003c8e06 	br	2654 <___vfprintf_internal_r+0xfd8>
    341c:	5005883a 	mov	r2,r10
    3420:	003e6506 	br	2db8 <___vfprintf_internal_r+0x173c>
    3424:	da402b15 	stw	r9,172(sp)
    3428:	dcc02783 	ldbu	r19,158(sp)
    342c:	4823883a 	mov	r17,r9
    3430:	dc802d15 	stw	r18,180(sp)
    3434:	d8003215 	stw	zero,200(sp)
    3438:	d8003415 	stw	zero,208(sp)
    343c:	0039ec06 	br	1bf0 <___vfprintf_internal_r+0x574>
    3440:	843fff84 	addi	r16,r16,-2
    3444:	1d7fffc4 	addi	r21,r3,-1
    3448:	dd402615 	stw	r21,152(sp)
    344c:	dc0022c5 	stb	r16,139(sp)
    3450:	a8009616 	blt	r21,zero,36ac <___vfprintf_internal_r+0x2030>
    3454:	00800ac4 	movi	r2,43
    3458:	d8802305 	stb	r2,140(sp)
    345c:	00800244 	movi	r2,9
    3460:	1540610e 	bge	r2,r21,35e8 <___vfprintf_internal_r+0x1f6c>
    3464:	dcc022c4 	addi	r19,sp,139
    3468:	dc002c15 	stw	r16,176(sp)
    346c:	4023883a 	mov	r17,r8
    3470:	9821883a 	mov	r16,r19
    3474:	a809883a 	mov	r4,r21
    3478:	01400284 	movi	r5,10
    347c:	000b55c0 	call	b55c <__modsi3>
    3480:	10800c04 	addi	r2,r2,48
    3484:	843fffc4 	addi	r16,r16,-1
    3488:	a809883a 	mov	r4,r21
    348c:	01400284 	movi	r5,10
    3490:	80800005 	stb	r2,0(r16)
    3494:	000b5080 	call	b508 <__divsi3>
    3498:	01000244 	movi	r4,9
    349c:	102b883a 	mov	r21,r2
    34a0:	20bff416 	blt	r4,r2,3474 <___vfprintf_internal_r+0x1df8>
    34a4:	8811883a 	mov	r8,r17
    34a8:	10800c04 	addi	r2,r2,48
    34ac:	8023883a 	mov	r17,r16
    34b0:	897fffc4 	addi	r5,r17,-1
    34b4:	88bfffc5 	stb	r2,-1(r17)
    34b8:	dc002c17 	ldw	r16,176(sp)
    34bc:	2cc07f2e 	bgeu	r5,r19,36bc <___vfprintf_internal_r+0x2040>
    34c0:	d9802384 	addi	r6,sp,142
    34c4:	344dc83a 	sub	r6,r6,r17
    34c8:	d9002344 	addi	r4,sp,141
    34cc:	998d883a 	add	r6,r19,r6
    34d0:	00000106 	br	34d8 <___vfprintf_internal_r+0x1e5c>
    34d4:	28800003 	ldbu	r2,0(r5)
    34d8:	20800005 	stb	r2,0(r4)
    34dc:	21000044 	addi	r4,r4,1
    34e0:	29400044 	addi	r5,r5,1
    34e4:	21bffb1e 	bne	r4,r6,34d4 <___vfprintf_internal_r+0x1e58>
    34e8:	d8802304 	addi	r2,sp,140
    34ec:	1445c83a 	sub	r2,r2,r17
    34f0:	d9402344 	addi	r5,sp,141
    34f4:	2885883a 	add	r2,r5,r2
    34f8:	14e7c83a 	sub	r19,r2,r19
    34fc:	d8803317 	ldw	r2,204(sp)
    3500:	d8c03317 	ldw	r3,204(sp)
    3504:	dcc03a15 	stw	r19,232(sp)
    3508:	14e3883a 	add	r17,r2,r19
    350c:	00800044 	movi	r2,1
    3510:	10c04e0e 	bge	r2,r3,364c <___vfprintf_internal_r+0x1fd0>
    3514:	8c400044 	addi	r17,r17,1
    3518:	8839883a 	mov	fp,r17
    351c:	88004916 	blt	r17,zero,3644 <___vfprintf_internal_r+0x1fc8>
    3520:	d8003415 	stw	zero,208(sp)
    3524:	003e3806 	br	2e08 <___vfprintf_internal_r+0x178c>
    3528:	483de91e 	bne	r9,zero,2cd0 <___vfprintf_internal_r+0x1654>
    352c:	8813883a 	mov	r9,r17
    3530:	003de706 	br	2cd0 <___vfprintf_internal_r+0x1654>
    3534:	b809883a 	mov	r4,r23
    3538:	b00b883a 	mov	r5,r22
    353c:	d9801e04 	addi	r6,sp,120
    3540:	0008b4c0 	call	8b4c <__sprint_r>
    3544:	1039421e 	bne	r2,zero,1a50 <___vfprintf_internal_r+0x3d4>
    3548:	dc002617 	ldw	r16,152(sp)
    354c:	d8c02017 	ldw	r3,128(sp)
    3550:	d8801f17 	ldw	r2,124(sp)
    3554:	da000404 	addi	r8,sp,16
    3558:	003ea006 	br	2fdc <___vfprintf_internal_r+0x1960>
    355c:	02400184 	movi	r9,6
    3560:	003ddb06 	br	2cd0 <___vfprintf_internal_r+0x1654>
    3564:	00c00b44 	movi	r3,45
    3568:	2460003c 	xorhi	r17,r4,32768
    356c:	d8c02b05 	stb	r3,172(sp)
    3570:	003ddd06 	br	2ce8 <___vfprintf_internal_r+0x166c>
    3574:	d8c03417 	ldw	r3,208(sp)
    3578:	00c03d0e 	bge	zero,r3,3670 <___vfprintf_internal_r+0x1ff4>
    357c:	04400044 	movi	r17,1
    3580:	d9003317 	ldw	r4,204(sp)
    3584:	8923883a 	add	r17,r17,r4
    3588:	8839883a 	mov	fp,r17
    358c:	883e1e0e 	bge	r17,zero,2e08 <___vfprintf_internal_r+0x178c>
    3590:	0039883a 	mov	fp,zero
    3594:	003e1c06 	br	2e08 <___vfprintf_internal_r+0x178c>
    3598:	4d400044 	addi	r21,r9,1
    359c:	003dd906 	br	2d04 <___vfprintf_internal_r+0x1688>
    35a0:	1839883a 	mov	fp,r3
    35a4:	18004716 	blt	r3,zero,36c4 <___vfprintf_internal_r+0x2048>
    35a8:	dc403417 	ldw	r17,208(sp)
    35ac:	003e1606 	br	2e08 <___vfprintf_internal_r+0x178c>
    35b0:	00c0290e 	bge	zero,r3,3658 <___vfprintf_internal_r+0x1fdc>
    35b4:	4800021e 	bne	r9,zero,35c0 <___vfprintf_internal_r+0x1f44>
    35b8:	e080004c 	andi	r2,fp,1
    35bc:	103ff826 	beq	r2,zero,35a0 <___vfprintf_internal_r+0x1f24>
    35c0:	d8c03417 	ldw	r3,208(sp)
    35c4:	4a400044 	addi	r9,r9,1
    35c8:	1a63883a 	add	r17,r3,r9
    35cc:	8839883a 	mov	fp,r17
    35d0:	883e0d0e 	bge	r17,zero,2e08 <___vfprintf_internal_r+0x178c>
    35d4:	003fee06 	br	3590 <___vfprintf_internal_r+0x1f14>
    35d8:	d8802117 	ldw	r2,132(sp)
    35dc:	003df606 	br	2db8 <___vfprintf_internal_r+0x173c>
    35e0:	0005883a 	mov	r2,zero
    35e4:	003f5206 	br	3330 <___vfprintf_internal_r+0x1cb4>
    35e8:	00800c04 	movi	r2,48
    35ec:	a8c00c04 	addi	r3,r21,48
    35f0:	d8802345 	stb	r2,141(sp)
    35f4:	d8c02385 	stb	r3,142(sp)
    35f8:	d88023c4 	addi	r2,sp,143
    35fc:	dcc022c4 	addi	r19,sp,139
    3600:	003fbd06 	br	34f8 <___vfprintf_internal_r+0x1e7c>
    3604:	d9003717 	ldw	r4,220(sp)
    3608:	880b883a 	mov	r5,r17
    360c:	000d883a 	mov	r6,zero
    3610:	000f883a 	mov	r7,zero
    3614:	da003f15 	stw	r8,252(sp)
    3618:	da403e15 	stw	r9,248(sp)
    361c:	da803d15 	stw	r10,244(sp)
    3620:	000c7e40 	call	c7e4 <__eqdf2>
    3624:	da003f17 	ldw	r8,252(sp)
    3628:	da403e17 	ldw	r9,248(sp)
    362c:	da803d17 	ldw	r10,244(sp)
    3630:	103f1526 	beq	r2,zero,3288 <___vfprintf_internal_r+0x1c0c>
    3634:	00800044 	movi	r2,1
    3638:	1547c83a 	sub	r3,r2,r21
    363c:	d8c02615 	stw	r3,152(sp)
    3640:	003f1206 	br	328c <___vfprintf_internal_r+0x1c10>
    3644:	0039883a 	mov	fp,zero
    3648:	003fb506 	br	3520 <___vfprintf_internal_r+0x1ea4>
    364c:	e084703a 	and	r2,fp,r2
    3650:	103fb126 	beq	r2,zero,3518 <___vfprintf_internal_r+0x1e9c>
    3654:	003faf06 	br	3514 <___vfprintf_internal_r+0x1e98>
    3658:	4800081e 	bne	r9,zero,367c <___vfprintf_internal_r+0x2000>
    365c:	e080004c 	andi	r2,fp,1
    3660:	1000061e 	bne	r2,zero,367c <___vfprintf_internal_r+0x2000>
    3664:	07000044 	movi	fp,1
    3668:	e023883a 	mov	r17,fp
    366c:	003de606 	br	2e08 <___vfprintf_internal_r+0x178c>
    3670:	04400084 	movi	r17,2
    3674:	88e3c83a 	sub	r17,r17,r3
    3678:	003fc106 	br	3580 <___vfprintf_internal_r+0x1f04>
    367c:	4c400084 	addi	r17,r9,2
    3680:	8839883a 	mov	fp,r17
    3684:	883de00e 	bge	r17,zero,2e08 <___vfprintf_internal_r+0x178c>
    3688:	003fc106 	br	3590 <___vfprintf_internal_r+0x1f14>
    368c:	d9402d17 	ldw	r5,180(sp)
    3690:	2a400017 	ldw	r9,0(r5)
    3694:	28c00104 	addi	r3,r5,4
    3698:	d8c02d15 	stw	r3,180(sp)
    369c:	483eb50e 	bge	r9,zero,3174 <___vfprintf_internal_r+0x1af8>
    36a0:	027fffc4 	movi	r9,-1
    36a4:	e4000047 	ldb	r16,1(fp)
    36a8:	00385a06 	br	1814 <___vfprintf_internal_r+0x198>
    36ac:	00800b44 	movi	r2,45
    36b0:	056bc83a 	sub	r21,zero,r21
    36b4:	d8802305 	stb	r2,140(sp)
    36b8:	003f6806 	br	345c <___vfprintf_internal_r+0x1de0>
    36bc:	d8802344 	addi	r2,sp,141
    36c0:	003f8d06 	br	34f8 <___vfprintf_internal_r+0x1e7c>
    36c4:	0039883a 	mov	fp,zero
    36c8:	003fb706 	br	35a8 <___vfprintf_internal_r+0x1f2c>
    36cc:	d8c02617 	ldw	r3,152(sp)
    36d0:	003f5c06 	br	3444 <___vfprintf_internal_r+0x1dc8>

000036d4 <__vfprintf_internal>:
    36d4:	2007883a 	mov	r3,r4
    36d8:	01000074 	movhi	r4,1
    36dc:	21113d04 	addi	r4,r4,17652
    36e0:	21000017 	ldw	r4,0(r4)
    36e4:	2805883a 	mov	r2,r5
    36e8:	300f883a 	mov	r7,r6
    36ec:	180b883a 	mov	r5,r3
    36f0:	100d883a 	mov	r6,r2
    36f4:	000167c1 	jmpi	167c <___vfprintf_internal_r>

000036f8 <__sbprintf>:
    36f8:	2880030b 	ldhu	r2,12(r5)
    36fc:	2ac01917 	ldw	r11,100(r5)
    3700:	2a80038b 	ldhu	r10,14(r5)
    3704:	2a400717 	ldw	r9,28(r5)
    3708:	2a000917 	ldw	r8,36(r5)
    370c:	defee204 	addi	sp,sp,-1144
    3710:	00c10004 	movi	r3,1024
    3714:	dc011a15 	stw	r16,1128(sp)
    3718:	10bfff4c 	andi	r2,r2,65533
    371c:	2821883a 	mov	r16,r5
    3720:	d8cb883a 	add	r5,sp,r3
    3724:	dc811c15 	stw	r18,1136(sp)
    3728:	dc411b15 	stw	r17,1132(sp)
    372c:	dfc11d15 	stw	ra,1140(sp)
    3730:	2025883a 	mov	r18,r4
    3734:	d881030d 	sth	r2,1036(sp)
    3738:	dac11915 	stw	r11,1124(sp)
    373c:	da81038d 	sth	r10,1038(sp)
    3740:	da410715 	stw	r9,1052(sp)
    3744:	da010915 	stw	r8,1060(sp)
    3748:	dec10015 	stw	sp,1024(sp)
    374c:	dec10415 	stw	sp,1040(sp)
    3750:	d8c10215 	stw	r3,1032(sp)
    3754:	d8c10515 	stw	r3,1044(sp)
    3758:	d8010615 	stw	zero,1048(sp)
    375c:	000167c0 	call	167c <___vfprintf_internal_r>
    3760:	1023883a 	mov	r17,r2
    3764:	10000416 	blt	r2,zero,3778 <__sbprintf+0x80>
    3768:	9009883a 	mov	r4,r18
    376c:	d9410004 	addi	r5,sp,1024
    3770:	00054600 	call	5460 <_fflush_r>
    3774:	10000d1e 	bne	r2,zero,37ac <__sbprintf+0xb4>
    3778:	d8c1030b 	ldhu	r3,1036(sp)
    377c:	18c0100c 	andi	r3,r3,64
    3780:	18000326 	beq	r3,zero,3790 <__sbprintf+0x98>
    3784:	8080030b 	ldhu	r2,12(r16)
    3788:	10801014 	ori	r2,r2,64
    378c:	8080030d 	sth	r2,12(r16)
    3790:	8805883a 	mov	r2,r17
    3794:	dfc11d17 	ldw	ra,1140(sp)
    3798:	dc811c17 	ldw	r18,1136(sp)
    379c:	dc411b17 	ldw	r17,1132(sp)
    37a0:	dc011a17 	ldw	r16,1128(sp)
    37a4:	dec11e04 	addi	sp,sp,1144
    37a8:	f800283a 	ret
    37ac:	047fffc4 	movi	r17,-1
    37b0:	003ff106 	br	3778 <__sbprintf+0x80>

000037b4 <__swsetup_r>:
    37b4:	00800074 	movhi	r2,1
    37b8:	defffd04 	addi	sp,sp,-12
    37bc:	10913d04 	addi	r2,r2,17652
    37c0:	dc400115 	stw	r17,4(sp)
    37c4:	2023883a 	mov	r17,r4
    37c8:	11000017 	ldw	r4,0(r2)
    37cc:	dc000015 	stw	r16,0(sp)
    37d0:	dfc00215 	stw	ra,8(sp)
    37d4:	2821883a 	mov	r16,r5
    37d8:	20000226 	beq	r4,zero,37e4 <__swsetup_r+0x30>
    37dc:	20c00e17 	ldw	r3,56(r4)
    37e0:	18003126 	beq	r3,zero,38a8 <__swsetup_r+0xf4>
    37e4:	8080030b 	ldhu	r2,12(r16)
    37e8:	10c0020c 	andi	r3,r2,8
    37ec:	100d883a 	mov	r6,r2
    37f0:	18000f26 	beq	r3,zero,3830 <__swsetup_r+0x7c>
    37f4:	80c00417 	ldw	r3,16(r16)
    37f8:	18001526 	beq	r3,zero,3850 <__swsetup_r+0x9c>
    37fc:	1100004c 	andi	r4,r2,1
    3800:	20001c1e 	bne	r4,zero,3874 <__swsetup_r+0xc0>
    3804:	1080008c 	andi	r2,r2,2
    3808:	1000291e 	bne	r2,zero,38b0 <__swsetup_r+0xfc>
    380c:	80800517 	ldw	r2,20(r16)
    3810:	80800215 	stw	r2,8(r16)
    3814:	18001c26 	beq	r3,zero,3888 <__swsetup_r+0xd4>
    3818:	0005883a 	mov	r2,zero
    381c:	dfc00217 	ldw	ra,8(sp)
    3820:	dc400117 	ldw	r17,4(sp)
    3824:	dc000017 	ldw	r16,0(sp)
    3828:	dec00304 	addi	sp,sp,12
    382c:	f800283a 	ret
    3830:	3080040c 	andi	r2,r6,16
    3834:	10002e26 	beq	r2,zero,38f0 <__swsetup_r+0x13c>
    3838:	3080010c 	andi	r2,r6,4
    383c:	10001e1e 	bne	r2,zero,38b8 <__swsetup_r+0x104>
    3840:	80c00417 	ldw	r3,16(r16)
    3844:	30800214 	ori	r2,r6,8
    3848:	8080030d 	sth	r2,12(r16)
    384c:	183feb1e 	bne	r3,zero,37fc <__swsetup_r+0x48>
    3850:	1140a00c 	andi	r5,r2,640
    3854:	01008004 	movi	r4,512
    3858:	293fe826 	beq	r5,r4,37fc <__swsetup_r+0x48>
    385c:	8809883a 	mov	r4,r17
    3860:	800b883a 	mov	r5,r16
    3864:	00063e40 	call	63e4 <__smakebuf_r>
    3868:	8080030b 	ldhu	r2,12(r16)
    386c:	80c00417 	ldw	r3,16(r16)
    3870:	003fe206 	br	37fc <__swsetup_r+0x48>
    3874:	80800517 	ldw	r2,20(r16)
    3878:	80000215 	stw	zero,8(r16)
    387c:	0085c83a 	sub	r2,zero,r2
    3880:	80800615 	stw	r2,24(r16)
    3884:	183fe41e 	bne	r3,zero,3818 <__swsetup_r+0x64>
    3888:	80c0030b 	ldhu	r3,12(r16)
    388c:	0005883a 	mov	r2,zero
    3890:	1900200c 	andi	r4,r3,128
    3894:	203fe126 	beq	r4,zero,381c <__swsetup_r+0x68>
    3898:	18c01014 	ori	r3,r3,64
    389c:	80c0030d 	sth	r3,12(r16)
    38a0:	00bfffc4 	movi	r2,-1
    38a4:	003fdd06 	br	381c <__swsetup_r+0x68>
    38a8:	000584c0 	call	584c <__sinit>
    38ac:	003fcd06 	br	37e4 <__swsetup_r+0x30>
    38b0:	0005883a 	mov	r2,zero
    38b4:	003fd606 	br	3810 <__swsetup_r+0x5c>
    38b8:	81400c17 	ldw	r5,48(r16)
    38bc:	28000626 	beq	r5,zero,38d8 <__swsetup_r+0x124>
    38c0:	80801004 	addi	r2,r16,64
    38c4:	28800326 	beq	r5,r2,38d4 <__swsetup_r+0x120>
    38c8:	8809883a 	mov	r4,r17
    38cc:	00059c00 	call	59c0 <_free_r>
    38d0:	8180030b 	ldhu	r6,12(r16)
    38d4:	80000c15 	stw	zero,48(r16)
    38d8:	80c00417 	ldw	r3,16(r16)
    38dc:	00bff6c4 	movi	r2,-37
    38e0:	118c703a 	and	r6,r2,r6
    38e4:	80000115 	stw	zero,4(r16)
    38e8:	80c00015 	stw	r3,0(r16)
    38ec:	003fd506 	br	3844 <__swsetup_r+0x90>
    38f0:	00800244 	movi	r2,9
    38f4:	88800015 	stw	r2,0(r17)
    38f8:	30801014 	ori	r2,r6,64
    38fc:	8080030d 	sth	r2,12(r16)
    3900:	00bfffc4 	movi	r2,-1
    3904:	003fc506 	br	381c <__swsetup_r+0x68>

00003908 <quorem>:
    3908:	defff204 	addi	sp,sp,-56
    390c:	ddc00b15 	stw	r23,44(sp)
    3910:	20800417 	ldw	r2,16(r4)
    3914:	2dc00417 	ldw	r23,16(r5)
    3918:	dfc00d15 	stw	ra,52(sp)
    391c:	df000c15 	stw	fp,48(sp)
    3920:	dd800a15 	stw	r22,40(sp)
    3924:	dd400915 	stw	r21,36(sp)
    3928:	dd000815 	stw	r20,32(sp)
    392c:	dcc00715 	stw	r19,28(sp)
    3930:	dc800615 	stw	r18,24(sp)
    3934:	dc400515 	stw	r17,20(sp)
    3938:	dc000415 	stw	r16,16(sp)
    393c:	15c07a16 	blt	r2,r23,3b28 <quorem+0x220>
    3940:	bdffffc4 	addi	r23,r23,-1
    3944:	bde9883a 	add	r20,r23,r23
    3948:	28c00504 	addi	r3,r5,20
    394c:	a529883a 	add	r20,r20,r20
    3950:	1d39883a 	add	fp,r3,r20
    3954:	24c00504 	addi	r19,r4,20
    3958:	d9400215 	stw	r5,8(sp)
    395c:	9d29883a 	add	r20,r19,r20
    3960:	e1400017 	ldw	r5,0(fp)
    3964:	d9000015 	stw	r4,0(sp)
    3968:	a1000017 	ldw	r4,0(r20)
    396c:	29400044 	addi	r5,r5,1
    3970:	d8c00115 	stw	r3,4(sp)
    3974:	dd000315 	stw	r20,12(sp)
    3978:	000b5b80 	call	b5b8 <__udivsi3>
    397c:	1025883a 	mov	r18,r2
    3980:	10003026 	beq	r2,zero,3a44 <quorem+0x13c>
    3984:	dc400117 	ldw	r17,4(sp)
    3988:	9829883a 	mov	r20,r19
    398c:	002d883a 	mov	r22,zero
    3990:	0021883a 	mov	r16,zero
    3994:	8d400017 	ldw	r21,0(r17)
    3998:	900b883a 	mov	r5,r18
    399c:	8c400104 	addi	r17,r17,4
    39a0:	a93fffcc 	andi	r4,r21,65535
    39a4:	0000dc40 	call	dc4 <__mulsi3>
    39a8:	a808d43a 	srli	r4,r21,16
    39ac:	900b883a 	mov	r5,r18
    39b0:	b0ad883a 	add	r22,r22,r2
    39b4:	0000dc40 	call	dc4 <__mulsi3>
    39b8:	a1000017 	ldw	r4,0(r20)
    39bc:	b00cd43a 	srli	r6,r22,16
    39c0:	b0ffffcc 	andi	r3,r22,65535
    39c4:	217fffcc 	andi	r5,r4,65535
    39c8:	2c21883a 	add	r16,r5,r16
    39cc:	80c7c83a 	sub	r3,r16,r3
    39d0:	2008d43a 	srli	r4,r4,16
    39d4:	3085883a 	add	r2,r6,r2
    39d8:	1821d43a 	srai	r16,r3,16
    39dc:	117fffcc 	andi	r5,r2,65535
    39e0:	2149c83a 	sub	r4,r4,r5
    39e4:	2421883a 	add	r16,r4,r16
    39e8:	8008943a 	slli	r4,r16,16
    39ec:	18ffffcc 	andi	r3,r3,65535
    39f0:	102cd43a 	srli	r22,r2,16
    39f4:	20c8b03a 	or	r4,r4,r3
    39f8:	a1000015 	stw	r4,0(r20)
    39fc:	8021d43a 	srai	r16,r16,16
    3a00:	a5000104 	addi	r20,r20,4
    3a04:	e47fe32e 	bgeu	fp,r17,3994 <quorem+0x8c>
    3a08:	d8c00317 	ldw	r3,12(sp)
    3a0c:	18800017 	ldw	r2,0(r3)
    3a10:	10000c1e 	bne	r2,zero,3a44 <quorem+0x13c>
    3a14:	18bfff04 	addi	r2,r3,-4
    3a18:	9880082e 	bgeu	r19,r2,3a3c <quorem+0x134>
    3a1c:	18ffff17 	ldw	r3,-4(r3)
    3a20:	18000326 	beq	r3,zero,3a30 <quorem+0x128>
    3a24:	00000506 	br	3a3c <quorem+0x134>
    3a28:	10c00017 	ldw	r3,0(r2)
    3a2c:	1800031e 	bne	r3,zero,3a3c <quorem+0x134>
    3a30:	10bfff04 	addi	r2,r2,-4
    3a34:	bdffffc4 	addi	r23,r23,-1
    3a38:	98bffb36 	bltu	r19,r2,3a28 <quorem+0x120>
    3a3c:	d8c00017 	ldw	r3,0(sp)
    3a40:	1dc00415 	stw	r23,16(r3)
    3a44:	d9000017 	ldw	r4,0(sp)
    3a48:	d9400217 	ldw	r5,8(sp)
    3a4c:	0007b740 	call	7b74 <__mcmp>
    3a50:	10002816 	blt	r2,zero,3af4 <quorem+0x1ec>
    3a54:	dc400117 	ldw	r17,4(sp)
    3a58:	94800044 	addi	r18,r18,1
    3a5c:	980d883a 	mov	r6,r19
    3a60:	0007883a 	mov	r3,zero
    3a64:	31000017 	ldw	r4,0(r6)
    3a68:	89400017 	ldw	r5,0(r17)
    3a6c:	31800104 	addi	r6,r6,4
    3a70:	20bfffcc 	andi	r2,r4,65535
    3a74:	10c7883a 	add	r3,r2,r3
    3a78:	28bfffcc 	andi	r2,r5,65535
    3a7c:	1885c83a 	sub	r2,r3,r2
    3a80:	280ad43a 	srli	r5,r5,16
    3a84:	2008d43a 	srli	r4,r4,16
    3a88:	1007d43a 	srai	r3,r2,16
    3a8c:	10bfffcc 	andi	r2,r2,65535
    3a90:	2149c83a 	sub	r4,r4,r5
    3a94:	20c9883a 	add	r4,r4,r3
    3a98:	200a943a 	slli	r5,r4,16
    3a9c:	8c400104 	addi	r17,r17,4
    3aa0:	2007d43a 	srai	r3,r4,16
    3aa4:	2884b03a 	or	r2,r5,r2
    3aa8:	30bfff15 	stw	r2,-4(r6)
    3aac:	e47fed2e 	bgeu	fp,r17,3a64 <quorem+0x15c>
    3ab0:	bdc5883a 	add	r2,r23,r23
    3ab4:	1085883a 	add	r2,r2,r2
    3ab8:	9887883a 	add	r3,r19,r2
    3abc:	18800017 	ldw	r2,0(r3)
    3ac0:	10000c1e 	bne	r2,zero,3af4 <quorem+0x1ec>
    3ac4:	18bfff04 	addi	r2,r3,-4
    3ac8:	9880082e 	bgeu	r19,r2,3aec <quorem+0x1e4>
    3acc:	18ffff17 	ldw	r3,-4(r3)
    3ad0:	18000326 	beq	r3,zero,3ae0 <quorem+0x1d8>
    3ad4:	00000506 	br	3aec <quorem+0x1e4>
    3ad8:	10c00017 	ldw	r3,0(r2)
    3adc:	1800031e 	bne	r3,zero,3aec <quorem+0x1e4>
    3ae0:	10bfff04 	addi	r2,r2,-4
    3ae4:	bdffffc4 	addi	r23,r23,-1
    3ae8:	98bffb36 	bltu	r19,r2,3ad8 <quorem+0x1d0>
    3aec:	d8c00017 	ldw	r3,0(sp)
    3af0:	1dc00415 	stw	r23,16(r3)
    3af4:	9005883a 	mov	r2,r18
    3af8:	dfc00d17 	ldw	ra,52(sp)
    3afc:	df000c17 	ldw	fp,48(sp)
    3b00:	ddc00b17 	ldw	r23,44(sp)
    3b04:	dd800a17 	ldw	r22,40(sp)
    3b08:	dd400917 	ldw	r21,36(sp)
    3b0c:	dd000817 	ldw	r20,32(sp)
    3b10:	dcc00717 	ldw	r19,28(sp)
    3b14:	dc800617 	ldw	r18,24(sp)
    3b18:	dc400517 	ldw	r17,20(sp)
    3b1c:	dc000417 	ldw	r16,16(sp)
    3b20:	dec00e04 	addi	sp,sp,56
    3b24:	f800283a 	ret
    3b28:	0005883a 	mov	r2,zero
    3b2c:	003ff206 	br	3af8 <quorem+0x1f0>

00003b30 <_dtoa_r>:
    3b30:	20801017 	ldw	r2,64(r4)
    3b34:	deffde04 	addi	sp,sp,-136
    3b38:	dd401d15 	stw	r21,116(sp)
    3b3c:	dcc01b15 	stw	r19,108(sp)
    3b40:	dc801a15 	stw	r18,104(sp)
    3b44:	dc401915 	stw	r17,100(sp)
    3b48:	dc001815 	stw	r16,96(sp)
    3b4c:	dfc02115 	stw	ra,132(sp)
    3b50:	df002015 	stw	fp,128(sp)
    3b54:	ddc01f15 	stw	r23,124(sp)
    3b58:	dd801e15 	stw	r22,120(sp)
    3b5c:	dd001c15 	stw	r20,112(sp)
    3b60:	d9c00315 	stw	r7,12(sp)
    3b64:	2021883a 	mov	r16,r4
    3b68:	302b883a 	mov	r21,r6
    3b6c:	2825883a 	mov	r18,r5
    3b70:	dc402417 	ldw	r17,144(sp)
    3b74:	3027883a 	mov	r19,r6
    3b78:	10000826 	beq	r2,zero,3b9c <_dtoa_r+0x6c>
    3b7c:	21801117 	ldw	r6,68(r4)
    3b80:	00c00044 	movi	r3,1
    3b84:	100b883a 	mov	r5,r2
    3b88:	1986983a 	sll	r3,r3,r6
    3b8c:	11800115 	stw	r6,4(r2)
    3b90:	10c00215 	stw	r3,8(r2)
    3b94:	000728c0 	call	728c <_Bfree>
    3b98:	80001015 	stw	zero,64(r16)
    3b9c:	a8002d16 	blt	r21,zero,3c54 <_dtoa_r+0x124>
    3ba0:	88000015 	stw	zero,0(r17)
    3ba4:	a8dffc2c 	andhi	r3,r21,32752
    3ba8:	009ffc34 	movhi	r2,32752
    3bac:	18801b26 	beq	r3,r2,3c1c <_dtoa_r+0xec>
    3bb0:	9009883a 	mov	r4,r18
    3bb4:	980b883a 	mov	r5,r19
    3bb8:	000d883a 	mov	r6,zero
    3bbc:	000f883a 	mov	r7,zero
    3bc0:	000c7e40 	call	c7e4 <__eqdf2>
    3bc4:	10002a1e 	bne	r2,zero,3c70 <_dtoa_r+0x140>
    3bc8:	d8c02317 	ldw	r3,140(sp)
    3bcc:	d9002517 	ldw	r4,148(sp)
    3bd0:	00800044 	movi	r2,1
    3bd4:	18800015 	stw	r2,0(r3)
    3bd8:	2001a226 	beq	r4,zero,4264 <_dtoa_r+0x734>
    3bdc:	00800074 	movhi	r2,1
    3be0:	1088d744 	addi	r2,r2,9053
    3be4:	20800015 	stw	r2,0(r4)
    3be8:	10bfffc4 	addi	r2,r2,-1
    3bec:	dfc02117 	ldw	ra,132(sp)
    3bf0:	df002017 	ldw	fp,128(sp)
    3bf4:	ddc01f17 	ldw	r23,124(sp)
    3bf8:	dd801e17 	ldw	r22,120(sp)
    3bfc:	dd401d17 	ldw	r21,116(sp)
    3c00:	dd001c17 	ldw	r20,112(sp)
    3c04:	dcc01b17 	ldw	r19,108(sp)
    3c08:	dc801a17 	ldw	r18,104(sp)
    3c0c:	dc401917 	ldw	r17,100(sp)
    3c10:	dc001817 	ldw	r16,96(sp)
    3c14:	dec02204 	addi	sp,sp,136
    3c18:	f800283a 	ret
    3c1c:	d8c02317 	ldw	r3,140(sp)
    3c20:	0089c3c4 	movi	r2,9999
    3c24:	18800015 	stw	r2,0(r3)
    3c28:	90017c26 	beq	r18,zero,421c <_dtoa_r+0x6ec>
    3c2c:	00800074 	movhi	r2,1
    3c30:	1088e304 	addi	r2,r2,9100
    3c34:	d9002517 	ldw	r4,148(sp)
    3c38:	203fec26 	beq	r4,zero,3bec <_dtoa_r+0xbc>
    3c3c:	10c000c7 	ldb	r3,3(r2)
    3c40:	18017d1e 	bne	r3,zero,4238 <_dtoa_r+0x708>
    3c44:	10c000c4 	addi	r3,r2,3
    3c48:	d9802517 	ldw	r6,148(sp)
    3c4c:	30c00015 	stw	r3,0(r6)
    3c50:	003fe606 	br	3bec <_dtoa_r+0xbc>
    3c54:	04e00034 	movhi	r19,32768
    3c58:	9cffffc4 	addi	r19,r19,-1
    3c5c:	00800044 	movi	r2,1
    3c60:	ace6703a 	and	r19,r21,r19
    3c64:	88800015 	stw	r2,0(r17)
    3c68:	982b883a 	mov	r21,r19
    3c6c:	003fcd06 	br	3ba4 <_dtoa_r+0x74>
    3c70:	d8800204 	addi	r2,sp,8
    3c74:	a822d53a 	srli	r17,r21,20
    3c78:	d8800015 	stw	r2,0(sp)
    3c7c:	8009883a 	mov	r4,r16
    3c80:	900b883a 	mov	r5,r18
    3c84:	980d883a 	mov	r6,r19
    3c88:	d9c00104 	addi	r7,sp,4
    3c8c:	0007ee80 	call	7ee8 <__d2b>
    3c90:	1039883a 	mov	fp,r2
    3c94:	88016a1e 	bne	r17,zero,4240 <_dtoa_r+0x710>
    3c98:	dd000217 	ldw	r20,8(sp)
    3c9c:	dc400117 	ldw	r17,4(sp)
    3ca0:	00befbc4 	movi	r2,-1041
    3ca4:	a463883a 	add	r17,r20,r17
    3ca8:	8882ea16 	blt	r17,r2,4854 <_dtoa_r+0xd24>
    3cac:	00bf0384 	movi	r2,-1010
    3cb0:	1445c83a 	sub	r2,r2,r17
    3cb4:	89010484 	addi	r4,r17,1042
    3cb8:	a8aa983a 	sll	r21,r21,r2
    3cbc:	9108d83a 	srl	r4,r18,r4
    3cc0:	a908b03a 	or	r4,r21,r4
    3cc4:	000dcbc0 	call	dcbc <__floatunsidf>
    3cc8:	017f8434 	movhi	r5,65040
    3ccc:	01800044 	movi	r6,1
    3cd0:	1009883a 	mov	r4,r2
    3cd4:	194b883a 	add	r5,r3,r5
    3cd8:	8c7fffc4 	addi	r17,r17,-1
    3cdc:	d9800f15 	stw	r6,60(sp)
    3ce0:	000d883a 	mov	r6,zero
    3ce4:	01cffe34 	movhi	r7,16376
    3ce8:	000d2940 	call	d294 <__subdf3>
    3cec:	0198dbf4 	movhi	r6,25455
    3cf0:	01cff4f4 	movhi	r7,16339
    3cf4:	1009883a 	mov	r4,r2
    3cf8:	180b883a 	mov	r5,r3
    3cfc:	3190d844 	addi	r6,r6,17249
    3d00:	39e1e9c4 	addi	r7,r7,-30809
    3d04:	000ca280 	call	ca28 <__muldf3>
    3d08:	01a2d874 	movhi	r6,35681
    3d0c:	01cff1f4 	movhi	r7,16327
    3d10:	180b883a 	mov	r5,r3
    3d14:	31b22cc4 	addi	r6,r6,-14157
    3d18:	39e28a04 	addi	r7,r7,-30168
    3d1c:	1009883a 	mov	r4,r2
    3d20:	000b5c80 	call	b5c8 <__adddf3>
    3d24:	8809883a 	mov	r4,r17
    3d28:	102d883a 	mov	r22,r2
    3d2c:	182b883a 	mov	r21,r3
    3d30:	000dbec0 	call	dbec <__floatsidf>
    3d34:	019427f4 	movhi	r6,20639
    3d38:	01cff4f4 	movhi	r7,16339
    3d3c:	1009883a 	mov	r4,r2
    3d40:	180b883a 	mov	r5,r3
    3d44:	319e7ec4 	addi	r6,r6,31227
    3d48:	39d104c4 	addi	r7,r7,17427
    3d4c:	000ca280 	call	ca28 <__muldf3>
    3d50:	b009883a 	mov	r4,r22
    3d54:	a80b883a 	mov	r5,r21
    3d58:	100d883a 	mov	r6,r2
    3d5c:	180f883a 	mov	r7,r3
    3d60:	000b5c80 	call	b5c8 <__adddf3>
    3d64:	1009883a 	mov	r4,r2
    3d68:	180b883a 	mov	r5,r3
    3d6c:	102d883a 	mov	r22,r2
    3d70:	182b883a 	mov	r21,r3
    3d74:	000db640 	call	db64 <__fixdfsi>
    3d78:	b009883a 	mov	r4,r22
    3d7c:	a80b883a 	mov	r5,r21
    3d80:	000d883a 	mov	r6,zero
    3d84:	000f883a 	mov	r7,zero
    3d88:	d8800515 	stw	r2,20(sp)
    3d8c:	000c9480 	call	c948 <__ledf2>
    3d90:	10023116 	blt	r2,zero,4658 <_dtoa_r+0xb28>
    3d94:	d8c00517 	ldw	r3,20(sp)
    3d98:	00800584 	movi	r2,22
    3d9c:	10c21f36 	bltu	r2,r3,461c <_dtoa_r+0xaec>
    3da0:	180490fa 	slli	r2,r3,3
    3da4:	00c00074 	movhi	r3,1
    3da8:	18c8ff04 	addi	r3,r3,9212
    3dac:	1885883a 	add	r2,r3,r2
    3db0:	11000017 	ldw	r4,0(r2)
    3db4:	11400117 	ldw	r5,4(r2)
    3db8:	900d883a 	mov	r6,r18
    3dbc:	980f883a 	mov	r7,r19
    3dc0:	000c8680 	call	c868 <__gedf2>
    3dc4:	0082a70e 	bge	zero,r2,4864 <_dtoa_r+0xd34>
    3dc8:	d9000517 	ldw	r4,20(sp)
    3dcc:	d8000d15 	stw	zero,52(sp)
    3dd0:	213fffc4 	addi	r4,r4,-1
    3dd4:	d9000515 	stw	r4,20(sp)
    3dd8:	a463c83a 	sub	r17,r20,r17
    3ddc:	8dbfffc4 	addi	r22,r17,-1
    3de0:	b0021916 	blt	r22,zero,4648 <_dtoa_r+0xb18>
    3de4:	d8000815 	stw	zero,32(sp)
    3de8:	d8800517 	ldw	r2,20(sp)
    3dec:	10020e16 	blt	r2,zero,4628 <_dtoa_r+0xaf8>
    3df0:	b0ad883a 	add	r22,r22,r2
    3df4:	d8800a15 	stw	r2,40(sp)
    3df8:	d8000915 	stw	zero,36(sp)
    3dfc:	d8c00317 	ldw	r3,12(sp)
    3e00:	00800244 	movi	r2,9
    3e04:	10c11a36 	bltu	r2,r3,4270 <_dtoa_r+0x740>
    3e08:	00800144 	movi	r2,5
    3e0c:	10c4fc0e 	bge	r2,r3,5200 <_dtoa_r+0x16d0>
    3e10:	18ffff04 	addi	r3,r3,-4
    3e14:	d8c00315 	stw	r3,12(sp)
    3e18:	0029883a 	mov	r20,zero
    3e1c:	d9800317 	ldw	r6,12(sp)
    3e20:	008000c4 	movi	r2,3
    3e24:	3083bd26 	beq	r6,r2,4d1c <_dtoa_r+0x11ec>
    3e28:	1183670e 	bge	r2,r6,4bc8 <_dtoa_r+0x1098>
    3e2c:	d8c00317 	ldw	r3,12(sp)
    3e30:	00800104 	movi	r2,4
    3e34:	1882e726 	beq	r3,r2,49d4 <_dtoa_r+0xea4>
    3e38:	00800144 	movi	r2,5
    3e3c:	1884f21e 	bne	r3,r2,5208 <_dtoa_r+0x16d8>
    3e40:	00800044 	movi	r2,1
    3e44:	d8800b15 	stw	r2,44(sp)
    3e48:	d8c02217 	ldw	r3,136(sp)
    3e4c:	d9000517 	ldw	r4,20(sp)
    3e50:	1907883a 	add	r3,r3,r4
    3e54:	19800044 	addi	r6,r3,1
    3e58:	d8c00c15 	stw	r3,48(sp)
    3e5c:	d9800615 	stw	r6,24(sp)
    3e60:	0183c30e 	bge	zero,r6,4d70 <_dtoa_r+0x1240>
    3e64:	d9800617 	ldw	r6,24(sp)
    3e68:	3023883a 	mov	r17,r6
    3e6c:	80001115 	stw	zero,68(r16)
    3e70:	008005c4 	movi	r2,23
    3e74:	1184f62e 	bgeu	r2,r6,5250 <_dtoa_r+0x1720>
    3e78:	00c00044 	movi	r3,1
    3e7c:	00800104 	movi	r2,4
    3e80:	1085883a 	add	r2,r2,r2
    3e84:	11000504 	addi	r4,r2,20
    3e88:	180b883a 	mov	r5,r3
    3e8c:	18c00044 	addi	r3,r3,1
    3e90:	313ffb2e 	bgeu	r6,r4,3e80 <_dtoa_r+0x350>
    3e94:	81401115 	stw	r5,68(r16)
    3e98:	8009883a 	mov	r4,r16
    3e9c:	00071e40 	call	71e4 <_Balloc>
    3ea0:	d8800715 	stw	r2,28(sp)
    3ea4:	80801015 	stw	r2,64(r16)
    3ea8:	00800384 	movi	r2,14
    3eac:	1440fd36 	bltu	r2,r17,42a4 <_dtoa_r+0x774>
    3eb0:	a000fc26 	beq	r20,zero,42a4 <_dtoa_r+0x774>
    3eb4:	d8800517 	ldw	r2,20(sp)
    3eb8:	0083b90e 	bge	zero,r2,4da0 <_dtoa_r+0x1270>
    3ebc:	d8c00517 	ldw	r3,20(sp)
    3ec0:	108003cc 	andi	r2,r2,15
    3ec4:	100490fa 	slli	r2,r2,3
    3ec8:	182fd13a 	srai	r23,r3,4
    3ecc:	00c00074 	movhi	r3,1
    3ed0:	18c8ff04 	addi	r3,r3,9212
    3ed4:	1885883a 	add	r2,r3,r2
    3ed8:	b8c0040c 	andi	r3,r23,16
    3edc:	12c00017 	ldw	r11,0(r2)
    3ee0:	12800117 	ldw	r10,4(r2)
    3ee4:	18039726 	beq	r3,zero,4d44 <_dtoa_r+0x1214>
    3ee8:	00800074 	movhi	r2,1
    3eec:	1088f504 	addi	r2,r2,9172
    3ef0:	11800817 	ldw	r6,32(r2)
    3ef4:	11c00917 	ldw	r7,36(r2)
    3ef8:	9009883a 	mov	r4,r18
    3efc:	980b883a 	mov	r5,r19
    3f00:	da801615 	stw	r10,88(sp)
    3f04:	dac01515 	stw	r11,84(sp)
    3f08:	000be640 	call	be64 <__divdf3>
    3f0c:	da801617 	ldw	r10,88(sp)
    3f10:	dac01517 	ldw	r11,84(sp)
    3f14:	bdc003cc 	andi	r23,r23,15
    3f18:	044000c4 	movi	r17,3
    3f1c:	d8800e15 	stw	r2,56(sp)
    3f20:	182b883a 	mov	r21,r3
    3f24:	b8001126 	beq	r23,zero,3f6c <_dtoa_r+0x43c>
    3f28:	05000074 	movhi	r20,1
    3f2c:	a508f504 	addi	r20,r20,9172
    3f30:	5805883a 	mov	r2,r11
    3f34:	5007883a 	mov	r3,r10
    3f38:	b980004c 	andi	r6,r23,1
    3f3c:	1009883a 	mov	r4,r2
    3f40:	b82fd07a 	srai	r23,r23,1
    3f44:	180b883a 	mov	r5,r3
    3f48:	30000426 	beq	r6,zero,3f5c <_dtoa_r+0x42c>
    3f4c:	a1800017 	ldw	r6,0(r20)
    3f50:	a1c00117 	ldw	r7,4(r20)
    3f54:	8c400044 	addi	r17,r17,1
    3f58:	000ca280 	call	ca28 <__muldf3>
    3f5c:	a5000204 	addi	r20,r20,8
    3f60:	b83ff51e 	bne	r23,zero,3f38 <_dtoa_r+0x408>
    3f64:	1017883a 	mov	r11,r2
    3f68:	1815883a 	mov	r10,r3
    3f6c:	d9000e17 	ldw	r4,56(sp)
    3f70:	a80b883a 	mov	r5,r21
    3f74:	580d883a 	mov	r6,r11
    3f78:	500f883a 	mov	r7,r10
    3f7c:	000be640 	call	be64 <__divdf3>
    3f80:	1029883a 	mov	r20,r2
    3f84:	182b883a 	mov	r21,r3
    3f88:	d9800d17 	ldw	r6,52(sp)
    3f8c:	30000626 	beq	r6,zero,3fa8 <_dtoa_r+0x478>
    3f90:	a009883a 	mov	r4,r20
    3f94:	a80b883a 	mov	r5,r21
    3f98:	000d883a 	mov	r6,zero
    3f9c:	01cffc34 	movhi	r7,16368
    3fa0:	000c9480 	call	c948 <__ledf2>
    3fa4:	10043216 	blt	r2,zero,5070 <_dtoa_r+0x1540>
    3fa8:	8809883a 	mov	r4,r17
    3fac:	000dbec0 	call	dbec <__floatsidf>
    3fb0:	1009883a 	mov	r4,r2
    3fb4:	180b883a 	mov	r5,r3
    3fb8:	a00d883a 	mov	r6,r20
    3fbc:	a80f883a 	mov	r7,r21
    3fc0:	000ca280 	call	ca28 <__muldf3>
    3fc4:	000d883a 	mov	r6,zero
    3fc8:	1009883a 	mov	r4,r2
    3fcc:	180b883a 	mov	r5,r3
    3fd0:	01d00734 	movhi	r7,16412
    3fd4:	000b5c80 	call	b5c8 <__adddf3>
    3fd8:	1023883a 	mov	r17,r2
    3fdc:	d9800617 	ldw	r6,24(sp)
    3fe0:	00bf3034 	movhi	r2,64704
    3fe4:	1885883a 	add	r2,r3,r2
    3fe8:	d8800e15 	stw	r2,56(sp)
    3fec:	30032e26 	beq	r6,zero,4ca8 <_dtoa_r+0x1178>
    3ff0:	d8c00517 	ldw	r3,20(sp)
    3ff4:	da800617 	ldw	r10,24(sp)
    3ff8:	d8c01215 	stw	r3,72(sp)
    3ffc:	d9000b17 	ldw	r4,44(sp)
    4000:	2003b026 	beq	r4,zero,4ec4 <_dtoa_r+0x1394>
    4004:	50bfffc4 	addi	r2,r10,-1
    4008:	100490fa 	slli	r2,r2,3
    400c:	00c00074 	movhi	r3,1
    4010:	18c8ff04 	addi	r3,r3,9212
    4014:	1885883a 	add	r2,r3,r2
    4018:	11800017 	ldw	r6,0(r2)
    401c:	11c00117 	ldw	r7,4(r2)
    4020:	d8800717 	ldw	r2,28(sp)
    4024:	0009883a 	mov	r4,zero
    4028:	014ff834 	movhi	r5,16352
    402c:	da801615 	stw	r10,88(sp)
    4030:	15c00044 	addi	r23,r2,1
    4034:	000be640 	call	be64 <__divdf3>
    4038:	d9c00e17 	ldw	r7,56(sp)
    403c:	880d883a 	mov	r6,r17
    4040:	1009883a 	mov	r4,r2
    4044:	180b883a 	mov	r5,r3
    4048:	000d2940 	call	d294 <__subdf3>
    404c:	a80b883a 	mov	r5,r21
    4050:	a009883a 	mov	r4,r20
    4054:	d8c01015 	stw	r3,64(sp)
    4058:	d8800e15 	stw	r2,56(sp)
    405c:	000db640 	call	db64 <__fixdfsi>
    4060:	1009883a 	mov	r4,r2
    4064:	d8801715 	stw	r2,92(sp)
    4068:	000dbec0 	call	dbec <__floatsidf>
    406c:	a009883a 	mov	r4,r20
    4070:	a80b883a 	mov	r5,r21
    4074:	100d883a 	mov	r6,r2
    4078:	180f883a 	mov	r7,r3
    407c:	000d2940 	call	d294 <__subdf3>
    4080:	da001717 	ldw	r8,92(sp)
    4084:	1829883a 	mov	r20,r3
    4088:	d8c00717 	ldw	r3,28(sp)
    408c:	d9000e17 	ldw	r4,56(sp)
    4090:	d9401017 	ldw	r5,64(sp)
    4094:	42000c04 	addi	r8,r8,48
    4098:	1023883a 	mov	r17,r2
    409c:	1a000005 	stb	r8,0(r3)
    40a0:	880d883a 	mov	r6,r17
    40a4:	a00f883a 	mov	r7,r20
    40a8:	402b883a 	mov	r21,r8
    40ac:	000c8680 	call	c868 <__gedf2>
    40b0:	00844516 	blt	zero,r2,51c8 <_dtoa_r+0x1698>
    40b4:	0009883a 	mov	r4,zero
    40b8:	014ffc34 	movhi	r5,16368
    40bc:	880d883a 	mov	r6,r17
    40c0:	a00f883a 	mov	r7,r20
    40c4:	000d2940 	call	d294 <__subdf3>
    40c8:	d9000e17 	ldw	r4,56(sp)
    40cc:	d9401017 	ldw	r5,64(sp)
    40d0:	100d883a 	mov	r6,r2
    40d4:	180f883a 	mov	r7,r3
    40d8:	000c8680 	call	c868 <__gedf2>
    40dc:	da801617 	ldw	r10,88(sp)
    40e0:	00843616 	blt	zero,r2,51bc <_dtoa_r+0x168c>
    40e4:	00800044 	movi	r2,1
    40e8:	12806e0e 	bge	r2,r10,42a4 <_dtoa_r+0x774>
    40ec:	d9000717 	ldw	r4,28(sp)
    40f0:	dd801315 	stw	r22,76(sp)
    40f4:	dc001115 	stw	r16,68(sp)
    40f8:	2295883a 	add	r10,r4,r10
    40fc:	dcc01415 	stw	r19,80(sp)
    4100:	502d883a 	mov	r22,r10
    4104:	dcc01017 	ldw	r19,64(sp)
    4108:	b821883a 	mov	r16,r23
    410c:	dc801015 	stw	r18,64(sp)
    4110:	dc800e17 	ldw	r18,56(sp)
    4114:	00000906 	br	413c <_dtoa_r+0x60c>
    4118:	000d2940 	call	d294 <__subdf3>
    411c:	1009883a 	mov	r4,r2
    4120:	180b883a 	mov	r5,r3
    4124:	900d883a 	mov	r6,r18
    4128:	980f883a 	mov	r7,r19
    412c:	000c9480 	call	c948 <__ledf2>
    4130:	10040e16 	blt	r2,zero,516c <_dtoa_r+0x163c>
    4134:	b821883a 	mov	r16,r23
    4138:	bd841026 	beq	r23,r22,517c <_dtoa_r+0x164c>
    413c:	9009883a 	mov	r4,r18
    4140:	980b883a 	mov	r5,r19
    4144:	000d883a 	mov	r6,zero
    4148:	01d00934 	movhi	r7,16420
    414c:	000ca280 	call	ca28 <__muldf3>
    4150:	000d883a 	mov	r6,zero
    4154:	01d00934 	movhi	r7,16420
    4158:	8809883a 	mov	r4,r17
    415c:	a00b883a 	mov	r5,r20
    4160:	1025883a 	mov	r18,r2
    4164:	1827883a 	mov	r19,r3
    4168:	000ca280 	call	ca28 <__muldf3>
    416c:	180b883a 	mov	r5,r3
    4170:	1009883a 	mov	r4,r2
    4174:	1823883a 	mov	r17,r3
    4178:	1029883a 	mov	r20,r2
    417c:	000db640 	call	db64 <__fixdfsi>
    4180:	1009883a 	mov	r4,r2
    4184:	102b883a 	mov	r21,r2
    4188:	000dbec0 	call	dbec <__floatsidf>
    418c:	a009883a 	mov	r4,r20
    4190:	880b883a 	mov	r5,r17
    4194:	100d883a 	mov	r6,r2
    4198:	180f883a 	mov	r7,r3
    419c:	000d2940 	call	d294 <__subdf3>
    41a0:	ad400c04 	addi	r21,r21,48
    41a4:	1009883a 	mov	r4,r2
    41a8:	180b883a 	mov	r5,r3
    41ac:	900d883a 	mov	r6,r18
    41b0:	980f883a 	mov	r7,r19
    41b4:	85400005 	stb	r21,0(r16)
    41b8:	1023883a 	mov	r17,r2
    41bc:	1829883a 	mov	r20,r3
    41c0:	000c9480 	call	c948 <__ledf2>
    41c4:	bdc00044 	addi	r23,r23,1
    41c8:	0009883a 	mov	r4,zero
    41cc:	014ffc34 	movhi	r5,16368
    41d0:	880d883a 	mov	r6,r17
    41d4:	a00f883a 	mov	r7,r20
    41d8:	103fcf0e 	bge	r2,zero,4118 <_dtoa_r+0x5e8>
    41dc:	d9801217 	ldw	r6,72(sp)
    41e0:	dc001117 	ldw	r16,68(sp)
    41e4:	d9800515 	stw	r6,20(sp)
    41e8:	8009883a 	mov	r4,r16
    41ec:	e00b883a 	mov	r5,fp
    41f0:	000728c0 	call	728c <_Bfree>
    41f4:	d8c00517 	ldw	r3,20(sp)
    41f8:	d9002317 	ldw	r4,140(sp)
    41fc:	d9802517 	ldw	r6,148(sp)
    4200:	b8000005 	stb	zero,0(r23)
    4204:	18800044 	addi	r2,r3,1
    4208:	20800015 	stw	r2,0(r4)
    420c:	30027226 	beq	r6,zero,4bd8 <_dtoa_r+0x10a8>
    4210:	35c00015 	stw	r23,0(r6)
    4214:	d8800717 	ldw	r2,28(sp)
    4218:	003e7406 	br	3bec <_dtoa_r+0xbc>
    421c:	00800434 	movhi	r2,16
    4220:	10bfffc4 	addi	r2,r2,-1
    4224:	a8aa703a 	and	r21,r21,r2
    4228:	a83e801e 	bne	r21,zero,3c2c <_dtoa_r+0xfc>
    422c:	00800074 	movhi	r2,1
    4230:	1088e004 	addi	r2,r2,9088
    4234:	003e7f06 	br	3c34 <_dtoa_r+0x104>
    4238:	10c00204 	addi	r3,r2,8
    423c:	003e8206 	br	3c48 <_dtoa_r+0x118>
    4240:	01400434 	movhi	r5,16
    4244:	297fffc4 	addi	r5,r5,-1
    4248:	994a703a 	and	r5,r19,r5
    424c:	9009883a 	mov	r4,r18
    4250:	8c7f0044 	addi	r17,r17,-1023
    4254:	294ffc34 	orhi	r5,r5,16368
    4258:	dd000217 	ldw	r20,8(sp)
    425c:	d8000f15 	stw	zero,60(sp)
    4260:	003e9f06 	br	3ce0 <_dtoa_r+0x1b0>
    4264:	00800074 	movhi	r2,1
    4268:	1088d704 	addi	r2,r2,9052
    426c:	003e5f06 	br	3bec <_dtoa_r+0xbc>
    4270:	80001115 	stw	zero,68(r16)
    4274:	8009883a 	mov	r4,r16
    4278:	000b883a 	mov	r5,zero
    427c:	00071e40 	call	71e4 <_Balloc>
    4280:	01bfffc4 	movi	r6,-1
    4284:	d8800715 	stw	r2,28(sp)
    4288:	80801015 	stw	r2,64(r16)
    428c:	00800044 	movi	r2,1
    4290:	d9800c15 	stw	r6,48(sp)
    4294:	d8800b15 	stw	r2,44(sp)
    4298:	d9800615 	stw	r6,24(sp)
    429c:	d8002215 	stw	zero,136(sp)
    42a0:	d8000315 	stw	zero,12(sp)
    42a4:	d8800117 	ldw	r2,4(sp)
    42a8:	10008e16 	blt	r2,zero,44e4 <_dtoa_r+0x9b4>
    42ac:	d9000517 	ldw	r4,20(sp)
    42b0:	00c00384 	movi	r3,14
    42b4:	19008b16 	blt	r3,r4,44e4 <_dtoa_r+0x9b4>
    42b8:	200490fa 	slli	r2,r4,3
    42bc:	00c00074 	movhi	r3,1
    42c0:	d9802217 	ldw	r6,136(sp)
    42c4:	18c8ff04 	addi	r3,r3,9212
    42c8:	1885883a 	add	r2,r3,r2
    42cc:	14400017 	ldw	r17,0(r2)
    42d0:	15000117 	ldw	r20,4(r2)
    42d4:	3001c716 	blt	r6,zero,49f4 <_dtoa_r+0xec4>
    42d8:	880d883a 	mov	r6,r17
    42dc:	a00f883a 	mov	r7,r20
    42e0:	9009883a 	mov	r4,r18
    42e4:	980b883a 	mov	r5,r19
    42e8:	000be640 	call	be64 <__divdf3>
    42ec:	180b883a 	mov	r5,r3
    42f0:	1009883a 	mov	r4,r2
    42f4:	000db640 	call	db64 <__fixdfsi>
    42f8:	1009883a 	mov	r4,r2
    42fc:	102d883a 	mov	r22,r2
    4300:	000dbec0 	call	dbec <__floatsidf>
    4304:	1009883a 	mov	r4,r2
    4308:	180b883a 	mov	r5,r3
    430c:	880d883a 	mov	r6,r17
    4310:	a00f883a 	mov	r7,r20
    4314:	000ca280 	call	ca28 <__muldf3>
    4318:	9009883a 	mov	r4,r18
    431c:	980b883a 	mov	r5,r19
    4320:	100d883a 	mov	r6,r2
    4324:	180f883a 	mov	r7,r3
    4328:	000d2940 	call	d294 <__subdf3>
    432c:	d9000717 	ldw	r4,28(sp)
    4330:	d9800617 	ldw	r6,24(sp)
    4334:	180b883a 	mov	r5,r3
    4338:	b0c00c04 	addi	r3,r22,48
    433c:	20c00005 	stb	r3,0(r4)
    4340:	25c00044 	addi	r23,r4,1
    4344:	01000044 	movi	r4,1
    4348:	1011883a 	mov	r8,r2
    434c:	2807883a 	mov	r3,r5
    4350:	31003d26 	beq	r6,r4,4448 <_dtoa_r+0x918>
    4354:	000d883a 	mov	r6,zero
    4358:	01d00934 	movhi	r7,16420
    435c:	1009883a 	mov	r4,r2
    4360:	000ca280 	call	ca28 <__muldf3>
    4364:	1009883a 	mov	r4,r2
    4368:	180b883a 	mov	r5,r3
    436c:	000d883a 	mov	r6,zero
    4370:	000f883a 	mov	r7,zero
    4374:	1027883a 	mov	r19,r2
    4378:	182b883a 	mov	r21,r3
    437c:	000c7e40 	call	c7e4 <__eqdf2>
    4380:	103f9926 	beq	r2,zero,41e8 <_dtoa_r+0x6b8>
    4384:	d8c00617 	ldw	r3,24(sp)
    4388:	d9000717 	ldw	r4,28(sp)
    438c:	b825883a 	mov	r18,r23
    4390:	18bfffc4 	addi	r2,r3,-1
    4394:	20ad883a 	add	r22,r4,r2
    4398:	dc000315 	stw	r16,12(sp)
    439c:	00000a06 	br	43c8 <_dtoa_r+0x898>
    43a0:	000ca280 	call	ca28 <__muldf3>
    43a4:	1009883a 	mov	r4,r2
    43a8:	180b883a 	mov	r5,r3
    43ac:	000d883a 	mov	r6,zero
    43b0:	000f883a 	mov	r7,zero
    43b4:	1027883a 	mov	r19,r2
    43b8:	182b883a 	mov	r21,r3
    43bc:	b825883a 	mov	r18,r23
    43c0:	000c7e40 	call	c7e4 <__eqdf2>
    43c4:	10022626 	beq	r2,zero,4c60 <_dtoa_r+0x1130>
    43c8:	880d883a 	mov	r6,r17
    43cc:	a00f883a 	mov	r7,r20
    43d0:	9809883a 	mov	r4,r19
    43d4:	a80b883a 	mov	r5,r21
    43d8:	000be640 	call	be64 <__divdf3>
    43dc:	180b883a 	mov	r5,r3
    43e0:	1009883a 	mov	r4,r2
    43e4:	000db640 	call	db64 <__fixdfsi>
    43e8:	1009883a 	mov	r4,r2
    43ec:	1021883a 	mov	r16,r2
    43f0:	000dbec0 	call	dbec <__floatsidf>
    43f4:	1009883a 	mov	r4,r2
    43f8:	180b883a 	mov	r5,r3
    43fc:	880d883a 	mov	r6,r17
    4400:	a00f883a 	mov	r7,r20
    4404:	000ca280 	call	ca28 <__muldf3>
    4408:	9809883a 	mov	r4,r19
    440c:	a80b883a 	mov	r5,r21
    4410:	100d883a 	mov	r6,r2
    4414:	180f883a 	mov	r7,r3
    4418:	000d2940 	call	d294 <__subdf3>
    441c:	82000c04 	addi	r8,r16,48
    4420:	92000005 	stb	r8,0(r18)
    4424:	1009883a 	mov	r4,r2
    4428:	180b883a 	mov	r5,r3
    442c:	000d883a 	mov	r6,zero
    4430:	01d00934 	movhi	r7,16420
    4434:	1011883a 	mov	r8,r2
    4438:	bdc00044 	addi	r23,r23,1
    443c:	95bfd81e 	bne	r18,r22,43a0 <_dtoa_r+0x870>
    4440:	802d883a 	mov	r22,r16
    4444:	dc000317 	ldw	r16,12(sp)
    4448:	4009883a 	mov	r4,r8
    444c:	180b883a 	mov	r5,r3
    4450:	400d883a 	mov	r6,r8
    4454:	180f883a 	mov	r7,r3
    4458:	000b5c80 	call	b5c8 <__adddf3>
    445c:	8809883a 	mov	r4,r17
    4460:	a00b883a 	mov	r5,r20
    4464:	100d883a 	mov	r6,r2
    4468:	180f883a 	mov	r7,r3
    446c:	1027883a 	mov	r19,r2
    4470:	1825883a 	mov	r18,r3
    4474:	000c9480 	call	c948 <__ledf2>
    4478:	10000816 	blt	r2,zero,449c <_dtoa_r+0x96c>
    447c:	8809883a 	mov	r4,r17
    4480:	a00b883a 	mov	r5,r20
    4484:	980d883a 	mov	r6,r19
    4488:	900f883a 	mov	r7,r18
    448c:	000c7e40 	call	c7e4 <__eqdf2>
    4490:	103f551e 	bne	r2,zero,41e8 <_dtoa_r+0x6b8>
    4494:	b580004c 	andi	r22,r22,1
    4498:	b03f5326 	beq	r22,zero,41e8 <_dtoa_r+0x6b8>
    449c:	bd7fffc3 	ldbu	r21,-1(r23)
    44a0:	b8bfffc4 	addi	r2,r23,-1
    44a4:	1007883a 	mov	r3,r2
    44a8:	01400e44 	movi	r5,57
    44ac:	d9800717 	ldw	r6,28(sp)
    44b0:	00000506 	br	44c8 <_dtoa_r+0x998>
    44b4:	18ffffc4 	addi	r3,r3,-1
    44b8:	30825e26 	beq	r6,r2,4e34 <_dtoa_r+0x1304>
    44bc:	1d400003 	ldbu	r21,0(r3)
    44c0:	102f883a 	mov	r23,r2
    44c4:	10bfffc4 	addi	r2,r2,-1
    44c8:	a9003fcc 	andi	r4,r21,255
    44cc:	2100201c 	xori	r4,r4,128
    44d0:	213fe004 	addi	r4,r4,-128
    44d4:	217ff726 	beq	r4,r5,44b4 <_dtoa_r+0x984>
    44d8:	aa000044 	addi	r8,r21,1
    44dc:	12000005 	stb	r8,0(r2)
    44e0:	003f4106 	br	41e8 <_dtoa_r+0x6b8>
    44e4:	d8c00b17 	ldw	r3,44(sp)
    44e8:	18006726 	beq	r3,zero,4688 <_dtoa_r+0xb58>
    44ec:	d9000317 	ldw	r4,12(sp)
    44f0:	00c00044 	movi	r3,1
    44f4:	19016a0e 	bge	r3,r4,4aa0 <_dtoa_r+0xf70>
    44f8:	d8800617 	ldw	r2,24(sp)
    44fc:	d8c00917 	ldw	r3,36(sp)
    4500:	157fffc4 	addi	r21,r2,-1
    4504:	1d420716 	blt	r3,r21,4d24 <_dtoa_r+0x11f4>
    4508:	1d6bc83a 	sub	r21,r3,r21
    450c:	d8800617 	ldw	r2,24(sp)
    4510:	1002c716 	blt	r2,zero,5030 <_dtoa_r+0x1500>
    4514:	dd000817 	ldw	r20,32(sp)
    4518:	d8800617 	ldw	r2,24(sp)
    451c:	d9800817 	ldw	r6,32(sp)
    4520:	8009883a 	mov	r4,r16
    4524:	01400044 	movi	r5,1
    4528:	308d883a 	add	r6,r6,r2
    452c:	d9800815 	stw	r6,32(sp)
    4530:	b0ad883a 	add	r22,r22,r2
    4534:	00076180 	call	7618 <__i2b>
    4538:	1023883a 	mov	r17,r2
    453c:	a0000826 	beq	r20,zero,4560 <_dtoa_r+0xa30>
    4540:	0580070e 	bge	zero,r22,4560 <_dtoa_r+0xa30>
    4544:	b005883a 	mov	r2,r22
    4548:	a5812016 	blt	r20,r22,49cc <_dtoa_r+0xe9c>
    454c:	d8c00817 	ldw	r3,32(sp)
    4550:	a0a9c83a 	sub	r20,r20,r2
    4554:	b0adc83a 	sub	r22,r22,r2
    4558:	1887c83a 	sub	r3,r3,r2
    455c:	d8c00815 	stw	r3,32(sp)
    4560:	d9000917 	ldw	r4,36(sp)
    4564:	0100140e 	bge	zero,r4,45b8 <_dtoa_r+0xa88>
    4568:	d9800b17 	ldw	r6,44(sp)
    456c:	3001e526 	beq	r6,zero,4d04 <_dtoa_r+0x11d4>
    4570:	05400e0e 	bge	zero,r21,45ac <_dtoa_r+0xa7c>
    4574:	880b883a 	mov	r5,r17
    4578:	8009883a 	mov	r4,r16
    457c:	a80d883a 	mov	r6,r21
    4580:	00078e40 	call	78e4 <__pow5mult>
    4584:	e00d883a 	mov	r6,fp
    4588:	8009883a 	mov	r4,r16
    458c:	100b883a 	mov	r5,r2
    4590:	1023883a 	mov	r17,r2
    4594:	00076540 	call	7654 <__multiply>
    4598:	102f883a 	mov	r23,r2
    459c:	e00b883a 	mov	r5,fp
    45a0:	8009883a 	mov	r4,r16
    45a4:	000728c0 	call	728c <_Bfree>
    45a8:	b839883a 	mov	fp,r23
    45ac:	d8800917 	ldw	r2,36(sp)
    45b0:	154dc83a 	sub	r6,r2,r21
    45b4:	3001281e 	bne	r6,zero,4a58 <_dtoa_r+0xf28>
    45b8:	05c00044 	movi	r23,1
    45bc:	8009883a 	mov	r4,r16
    45c0:	b80b883a 	mov	r5,r23
    45c4:	00076180 	call	7618 <__i2b>
    45c8:	d8c00a17 	ldw	r3,40(sp)
    45cc:	102b883a 	mov	r21,r2
    45d0:	00c0310e 	bge	zero,r3,4698 <_dtoa_r+0xb68>
    45d4:	8009883a 	mov	r4,r16
    45d8:	100b883a 	mov	r5,r2
    45dc:	180d883a 	mov	r6,r3
    45e0:	00078e40 	call	78e4 <__pow5mult>
    45e4:	d9000317 	ldw	r4,12(sp)
    45e8:	102b883a 	mov	r21,r2
    45ec:	b9011f0e 	bge	r23,r4,4a6c <_dtoa_r+0xf3c>
    45f0:	0027883a 	mov	r19,zero
    45f4:	a8800417 	ldw	r2,16(r21)
    45f8:	10800104 	addi	r2,r2,4
    45fc:	1085883a 	add	r2,r2,r2
    4600:	1085883a 	add	r2,r2,r2
    4604:	a885883a 	add	r2,r21,r2
    4608:	11000017 	ldw	r4,0(r2)
    460c:	00075000 	call	7500 <__hi0bits>
    4610:	00c00804 	movi	r3,32
    4614:	1885c83a 	sub	r2,r3,r2
    4618:	00002506 	br	46b0 <_dtoa_r+0xb80>
    461c:	01800044 	movi	r6,1
    4620:	d9800d15 	stw	r6,52(sp)
    4624:	003dec06 	br	3dd8 <_dtoa_r+0x2a8>
    4628:	d8c00817 	ldw	r3,32(sp)
    462c:	d9000517 	ldw	r4,20(sp)
    4630:	d8000a15 	stw	zero,40(sp)
    4634:	1907c83a 	sub	r3,r3,r4
    4638:	010dc83a 	sub	r6,zero,r4
    463c:	d8c00815 	stw	r3,32(sp)
    4640:	d9800915 	stw	r6,36(sp)
    4644:	003ded06 	br	3dfc <_dtoa_r+0x2cc>
    4648:	05adc83a 	sub	r22,zero,r22
    464c:	dd800815 	stw	r22,32(sp)
    4650:	002d883a 	mov	r22,zero
    4654:	003de406 	br	3de8 <_dtoa_r+0x2b8>
    4658:	d9000517 	ldw	r4,20(sp)
    465c:	000dbec0 	call	dbec <__floatsidf>
    4660:	1009883a 	mov	r4,r2
    4664:	180b883a 	mov	r5,r3
    4668:	b00d883a 	mov	r6,r22
    466c:	a80f883a 	mov	r7,r21
    4670:	000c7e40 	call	c7e4 <__eqdf2>
    4674:	103dc726 	beq	r2,zero,3d94 <_dtoa_r+0x264>
    4678:	d8800517 	ldw	r2,20(sp)
    467c:	10bfffc4 	addi	r2,r2,-1
    4680:	d8800515 	stw	r2,20(sp)
    4684:	003dc306 	br	3d94 <_dtoa_r+0x264>
    4688:	dd400917 	ldw	r21,36(sp)
    468c:	dd000817 	ldw	r20,32(sp)
    4690:	0023883a 	mov	r17,zero
    4694:	003fa906 	br	453c <_dtoa_r+0xa0c>
    4698:	d9800317 	ldw	r6,12(sp)
    469c:	b981670e 	bge	r23,r6,4c3c <_dtoa_r+0x110c>
    46a0:	0027883a 	mov	r19,zero
    46a4:	d8c00a17 	ldw	r3,40(sp)
    46a8:	183fd21e 	bne	r3,zero,45f4 <_dtoa_r+0xac4>
    46ac:	00800044 	movi	r2,1
    46b0:	1585883a 	add	r2,r2,r22
    46b4:	108007cc 	andi	r2,r2,31
    46b8:	10005f26 	beq	r2,zero,4838 <_dtoa_r+0xd08>
    46bc:	00c00804 	movi	r3,32
    46c0:	1887c83a 	sub	r3,r3,r2
    46c4:	01000104 	movi	r4,4
    46c8:	20c2dd0e 	bge	r4,r3,5240 <_dtoa_r+0x1710>
    46cc:	d9000817 	ldw	r4,32(sp)
    46d0:	00c00704 	movi	r3,28
    46d4:	1885c83a 	sub	r2,r3,r2
    46d8:	2089883a 	add	r4,r4,r2
    46dc:	d9000815 	stw	r4,32(sp)
    46e0:	a0a9883a 	add	r20,r20,r2
    46e4:	b0ad883a 	add	r22,r22,r2
    46e8:	d8800817 	ldw	r2,32(sp)
    46ec:	0080050e 	bge	zero,r2,4704 <_dtoa_r+0xbd4>
    46f0:	e00b883a 	mov	r5,fp
    46f4:	8009883a 	mov	r4,r16
    46f8:	100d883a 	mov	r6,r2
    46fc:	0007a240 	call	7a24 <__lshift>
    4700:	1039883a 	mov	fp,r2
    4704:	0580050e 	bge	zero,r22,471c <_dtoa_r+0xbec>
    4708:	a80b883a 	mov	r5,r21
    470c:	8009883a 	mov	r4,r16
    4710:	b00d883a 	mov	r6,r22
    4714:	0007a240 	call	7a24 <__lshift>
    4718:	102b883a 	mov	r21,r2
    471c:	d8c00d17 	ldw	r3,52(sp)
    4720:	1801161e 	bne	r3,zero,4b7c <_dtoa_r+0x104c>
    4724:	d8c00617 	ldw	r3,24(sp)
    4728:	00c12d0e 	bge	zero,r3,4be0 <_dtoa_r+0x10b0>
    472c:	d8c00b17 	ldw	r3,44(sp)
    4730:	1800571e 	bne	r3,zero,4890 <_dtoa_r+0xd60>
    4734:	dc800717 	ldw	r18,28(sp)
    4738:	dcc00617 	ldw	r19,24(sp)
    473c:	9029883a 	mov	r20,r18
    4740:	00000206 	br	474c <_dtoa_r+0xc1c>
    4744:	00072b40 	call	72b4 <__multadd>
    4748:	1039883a 	mov	fp,r2
    474c:	e009883a 	mov	r4,fp
    4750:	a80b883a 	mov	r5,r21
    4754:	00039080 	call	3908 <quorem>
    4758:	10800c04 	addi	r2,r2,48
    475c:	90800005 	stb	r2,0(r18)
    4760:	94800044 	addi	r18,r18,1
    4764:	9507c83a 	sub	r3,r18,r20
    4768:	8009883a 	mov	r4,r16
    476c:	e00b883a 	mov	r5,fp
    4770:	01800284 	movi	r6,10
    4774:	000f883a 	mov	r7,zero
    4778:	1cfff216 	blt	r3,r19,4744 <_dtoa_r+0xc14>
    477c:	1011883a 	mov	r8,r2
    4780:	d8800617 	ldw	r2,24(sp)
    4784:	00822e0e 	bge	zero,r2,5040 <_dtoa_r+0x1510>
    4788:	d9000717 	ldw	r4,28(sp)
    478c:	0025883a 	mov	r18,zero
    4790:	20af883a 	add	r23,r4,r2
    4794:	e00b883a 	mov	r5,fp
    4798:	01800044 	movi	r6,1
    479c:	8009883a 	mov	r4,r16
    47a0:	da001715 	stw	r8,92(sp)
    47a4:	0007a240 	call	7a24 <__lshift>
    47a8:	1009883a 	mov	r4,r2
    47ac:	a80b883a 	mov	r5,r21
    47b0:	1039883a 	mov	fp,r2
    47b4:	0007b740 	call	7b74 <__mcmp>
    47b8:	da001717 	ldw	r8,92(sp)
    47bc:	00816e0e 	bge	zero,r2,4d78 <_dtoa_r+0x1248>
    47c0:	b93fffc3 	ldbu	r4,-1(r23)
    47c4:	b8bfffc4 	addi	r2,r23,-1
    47c8:	1007883a 	mov	r3,r2
    47cc:	01800e44 	movi	r6,57
    47d0:	d9c00717 	ldw	r7,28(sp)
    47d4:	00000506 	br	47ec <_dtoa_r+0xcbc>
    47d8:	18ffffc4 	addi	r3,r3,-1
    47dc:	38811926 	beq	r7,r2,4c44 <_dtoa_r+0x1114>
    47e0:	19000003 	ldbu	r4,0(r3)
    47e4:	102f883a 	mov	r23,r2
    47e8:	10bfffc4 	addi	r2,r2,-1
    47ec:	21403fcc 	andi	r5,r4,255
    47f0:	2940201c 	xori	r5,r5,128
    47f4:	297fe004 	addi	r5,r5,-128
    47f8:	29bff726 	beq	r5,r6,47d8 <_dtoa_r+0xca8>
    47fc:	21000044 	addi	r4,r4,1
    4800:	11000005 	stb	r4,0(r2)
    4804:	8009883a 	mov	r4,r16
    4808:	a80b883a 	mov	r5,r21
    480c:	000728c0 	call	728c <_Bfree>
    4810:	883e7526 	beq	r17,zero,41e8 <_dtoa_r+0x6b8>
    4814:	90000426 	beq	r18,zero,4828 <_dtoa_r+0xcf8>
    4818:	94400326 	beq	r18,r17,4828 <_dtoa_r+0xcf8>
    481c:	8009883a 	mov	r4,r16
    4820:	900b883a 	mov	r5,r18
    4824:	000728c0 	call	728c <_Bfree>
    4828:	8009883a 	mov	r4,r16
    482c:	880b883a 	mov	r5,r17
    4830:	000728c0 	call	728c <_Bfree>
    4834:	003e6c06 	br	41e8 <_dtoa_r+0x6b8>
    4838:	00800704 	movi	r2,28
    483c:	d9800817 	ldw	r6,32(sp)
    4840:	a0a9883a 	add	r20,r20,r2
    4844:	b0ad883a 	add	r22,r22,r2
    4848:	308d883a 	add	r6,r6,r2
    484c:	d9800815 	stw	r6,32(sp)
    4850:	003fa506 	br	46e8 <_dtoa_r+0xbb8>
    4854:	013efb84 	movi	r4,-1042
    4858:	246bc83a 	sub	r21,r4,r17
    485c:	9548983a 	sll	r4,r18,r21
    4860:	003d1806 	br	3cc4 <_dtoa_r+0x194>
    4864:	d8000d15 	stw	zero,52(sp)
    4868:	003d5b06 	br	3dd8 <_dtoa_r+0x2a8>
    486c:	880b883a 	mov	r5,r17
    4870:	8009883a 	mov	r4,r16
    4874:	01800284 	movi	r6,10
    4878:	000f883a 	mov	r7,zero
    487c:	00072b40 	call	72b4 <__multadd>
    4880:	1023883a 	mov	r17,r2
    4884:	d8800c17 	ldw	r2,48(sp)
    4888:	0082550e 	bge	zero,r2,51e0 <_dtoa_r+0x16b0>
    488c:	d8800615 	stw	r2,24(sp)
    4890:	0500050e 	bge	zero,r20,48a8 <_dtoa_r+0xd78>
    4894:	880b883a 	mov	r5,r17
    4898:	8009883a 	mov	r4,r16
    489c:	a00d883a 	mov	r6,r20
    48a0:	0007a240 	call	7a24 <__lshift>
    48a4:	1023883a 	mov	r17,r2
    48a8:	98016a1e 	bne	r19,zero,4e54 <_dtoa_r+0x1324>
    48ac:	8829883a 	mov	r20,r17
    48b0:	d9000617 	ldw	r4,24(sp)
    48b4:	dcc00717 	ldw	r19,28(sp)
    48b8:	9480004c 	andi	r18,r18,1
    48bc:	20bfffc4 	addi	r2,r4,-1
    48c0:	9885883a 	add	r2,r19,r2
    48c4:	d8800415 	stw	r2,16(sp)
    48c8:	dc800615 	stw	r18,24(sp)
    48cc:	e009883a 	mov	r4,fp
    48d0:	a80b883a 	mov	r5,r21
    48d4:	00039080 	call	3908 <quorem>
    48d8:	e009883a 	mov	r4,fp
    48dc:	880b883a 	mov	r5,r17
    48e0:	102f883a 	mov	r23,r2
    48e4:	0007b740 	call	7b74 <__mcmp>
    48e8:	8009883a 	mov	r4,r16
    48ec:	a80b883a 	mov	r5,r21
    48f0:	a00d883a 	mov	r6,r20
    48f4:	102d883a 	mov	r22,r2
    48f8:	0007bd40 	call	7bd4 <__mdiff>
    48fc:	1007883a 	mov	r3,r2
    4900:	10800317 	ldw	r2,12(r2)
    4904:	bc800c04 	addi	r18,r23,48
    4908:	1000971e 	bne	r2,zero,4b68 <_dtoa_r+0x1038>
    490c:	180b883a 	mov	r5,r3
    4910:	e009883a 	mov	r4,fp
    4914:	d8c01515 	stw	r3,84(sp)
    4918:	0007b740 	call	7b74 <__mcmp>
    491c:	d8c01517 	ldw	r3,84(sp)
    4920:	8009883a 	mov	r4,r16
    4924:	d8801515 	stw	r2,84(sp)
    4928:	180b883a 	mov	r5,r3
    492c:	000728c0 	call	728c <_Bfree>
    4930:	d8801517 	ldw	r2,84(sp)
    4934:	1000041e 	bne	r2,zero,4948 <_dtoa_r+0xe18>
    4938:	d9800317 	ldw	r6,12(sp)
    493c:	3000021e 	bne	r6,zero,4948 <_dtoa_r+0xe18>
    4940:	d8c00617 	ldw	r3,24(sp)
    4944:	18007626 	beq	r3,zero,4b20 <_dtoa_r+0xff0>
    4948:	b0005b16 	blt	r22,zero,4ab8 <_dtoa_r+0xf88>
    494c:	b000041e 	bne	r22,zero,4960 <_dtoa_r+0xe30>
    4950:	d9000317 	ldw	r4,12(sp)
    4954:	2000021e 	bne	r4,zero,4960 <_dtoa_r+0xe30>
    4958:	d8c00617 	ldw	r3,24(sp)
    495c:	18005626 	beq	r3,zero,4ab8 <_dtoa_r+0xf88>
    4960:	00814d16 	blt	zero,r2,4e98 <_dtoa_r+0x1368>
    4964:	d8c00417 	ldw	r3,16(sp)
    4968:	9d800044 	addi	r22,r19,1
    496c:	9c800005 	stb	r18,0(r19)
    4970:	b02f883a 	mov	r23,r22
    4974:	98c14c26 	beq	r19,r3,4ea8 <_dtoa_r+0x1378>
    4978:	e00b883a 	mov	r5,fp
    497c:	8009883a 	mov	r4,r16
    4980:	01800284 	movi	r6,10
    4984:	000f883a 	mov	r7,zero
    4988:	00072b40 	call	72b4 <__multadd>
    498c:	1039883a 	mov	fp,r2
    4990:	8d006d26 	beq	r17,r20,4b48 <_dtoa_r+0x1018>
    4994:	880b883a 	mov	r5,r17
    4998:	01800284 	movi	r6,10
    499c:	000f883a 	mov	r7,zero
    49a0:	8009883a 	mov	r4,r16
    49a4:	00072b40 	call	72b4 <__multadd>
    49a8:	a00b883a 	mov	r5,r20
    49ac:	8009883a 	mov	r4,r16
    49b0:	01800284 	movi	r6,10
    49b4:	000f883a 	mov	r7,zero
    49b8:	1023883a 	mov	r17,r2
    49bc:	00072b40 	call	72b4 <__multadd>
    49c0:	1029883a 	mov	r20,r2
    49c4:	b027883a 	mov	r19,r22
    49c8:	003fc006 	br	48cc <_dtoa_r+0xd9c>
    49cc:	a005883a 	mov	r2,r20
    49d0:	003ede06 	br	454c <_dtoa_r+0xa1c>
    49d4:	01000044 	movi	r4,1
    49d8:	d9000b15 	stw	r4,44(sp)
    49dc:	d9802217 	ldw	r6,136(sp)
    49e0:	0180dc0e 	bge	zero,r6,4d54 <_dtoa_r+0x1224>
    49e4:	3023883a 	mov	r17,r6
    49e8:	d9800c15 	stw	r6,48(sp)
    49ec:	d9800615 	stw	r6,24(sp)
    49f0:	003d1e06 	br	3e6c <_dtoa_r+0x33c>
    49f4:	d8800617 	ldw	r2,24(sp)
    49f8:	00be3716 	blt	zero,r2,42d8 <_dtoa_r+0x7a8>
    49fc:	1000be1e 	bne	r2,zero,4cf8 <_dtoa_r+0x11c8>
    4a00:	8809883a 	mov	r4,r17
    4a04:	a00b883a 	mov	r5,r20
    4a08:	000d883a 	mov	r6,zero
    4a0c:	01d00534 	movhi	r7,16404
    4a10:	000ca280 	call	ca28 <__muldf3>
    4a14:	1009883a 	mov	r4,r2
    4a18:	180b883a 	mov	r5,r3
    4a1c:	900d883a 	mov	r6,r18
    4a20:	980f883a 	mov	r7,r19
    4a24:	000c8680 	call	c868 <__gedf2>
    4a28:	002b883a 	mov	r21,zero
    4a2c:	0023883a 	mov	r17,zero
    4a30:	10007a16 	blt	r2,zero,4c1c <_dtoa_r+0x10ec>
    4a34:	d9002217 	ldw	r4,136(sp)
    4a38:	ddc00717 	ldw	r23,28(sp)
    4a3c:	0108303a 	nor	r4,zero,r4
    4a40:	d9000515 	stw	r4,20(sp)
    4a44:	8009883a 	mov	r4,r16
    4a48:	a80b883a 	mov	r5,r21
    4a4c:	000728c0 	call	728c <_Bfree>
    4a50:	883f751e 	bne	r17,zero,4828 <_dtoa_r+0xcf8>
    4a54:	003de406 	br	41e8 <_dtoa_r+0x6b8>
    4a58:	e00b883a 	mov	r5,fp
    4a5c:	8009883a 	mov	r4,r16
    4a60:	00078e40 	call	78e4 <__pow5mult>
    4a64:	1039883a 	mov	fp,r2
    4a68:	003ed306 	br	45b8 <_dtoa_r+0xa88>
    4a6c:	903ee01e 	bne	r18,zero,45f0 <_dtoa_r+0xac0>
    4a70:	00800434 	movhi	r2,16
    4a74:	10bfffc4 	addi	r2,r2,-1
    4a78:	9884703a 	and	r2,r19,r2
    4a7c:	103f081e 	bne	r2,zero,46a0 <_dtoa_r+0xb70>
    4a80:	9cdffc2c 	andhi	r19,r19,32752
    4a84:	983f0626 	beq	r19,zero,46a0 <_dtoa_r+0xb70>
    4a88:	d8800817 	ldw	r2,32(sp)
    4a8c:	b5800044 	addi	r22,r22,1
    4a90:	04c00044 	movi	r19,1
    4a94:	10800044 	addi	r2,r2,1
    4a98:	d8800815 	stw	r2,32(sp)
    4a9c:	003f0106 	br	46a4 <_dtoa_r+0xb74>
    4aa0:	d9800f17 	ldw	r6,60(sp)
    4aa4:	30016826 	beq	r6,zero,5048 <_dtoa_r+0x1518>
    4aa8:	10810cc4 	addi	r2,r2,1075
    4aac:	dd400917 	ldw	r21,36(sp)
    4ab0:	dd000817 	ldw	r20,32(sp)
    4ab4:	003e9906 	br	451c <_dtoa_r+0x9ec>
    4ab8:	9011883a 	mov	r8,r18
    4abc:	4007883a 	mov	r3,r8
    4ac0:	e02d883a 	mov	r22,fp
    4ac4:	0080100e 	bge	zero,r2,4b08 <_dtoa_r+0xfd8>
    4ac8:	01800044 	movi	r6,1
    4acc:	8009883a 	mov	r4,r16
    4ad0:	e00b883a 	mov	r5,fp
    4ad4:	da001515 	stw	r8,84(sp)
    4ad8:	da001715 	stw	r8,92(sp)
    4adc:	0007a240 	call	7a24 <__lshift>
    4ae0:	1009883a 	mov	r4,r2
    4ae4:	a80b883a 	mov	r5,r21
    4ae8:	102d883a 	mov	r22,r2
    4aec:	0007b740 	call	7b74 <__mcmp>
    4af0:	d8c01517 	ldw	r3,84(sp)
    4af4:	da001717 	ldw	r8,92(sp)
    4af8:	0081a50e 	bge	zero,r2,5190 <_dtoa_r+0x1660>
    4afc:	00800e44 	movi	r2,57
    4b00:	40817b26 	beq	r8,r2,50f0 <_dtoa_r+0x15c0>
    4b04:	40c00044 	addi	r3,r8,1
    4b08:	8825883a 	mov	r18,r17
    4b0c:	9dc00044 	addi	r23,r19,1
    4b10:	98c00005 	stb	r3,0(r19)
    4b14:	a023883a 	mov	r17,r20
    4b18:	b039883a 	mov	fp,r22
    4b1c:	003f3906 	br	4804 <_dtoa_r+0xcd4>
    4b20:	00800e44 	movi	r2,57
    4b24:	9011883a 	mov	r8,r18
    4b28:	90817226 	beq	r18,r2,50f4 <_dtoa_r+0x15c4>
    4b2c:	0580010e 	bge	zero,r22,4b34 <_dtoa_r+0x1004>
    4b30:	ba000c44 	addi	r8,r23,49
    4b34:	8825883a 	mov	r18,r17
    4b38:	9dc00044 	addi	r23,r19,1
    4b3c:	9a000005 	stb	r8,0(r19)
    4b40:	a023883a 	mov	r17,r20
    4b44:	003f2f06 	br	4804 <_dtoa_r+0xcd4>
    4b48:	880b883a 	mov	r5,r17
    4b4c:	8009883a 	mov	r4,r16
    4b50:	01800284 	movi	r6,10
    4b54:	000f883a 	mov	r7,zero
    4b58:	00072b40 	call	72b4 <__multadd>
    4b5c:	1023883a 	mov	r17,r2
    4b60:	1029883a 	mov	r20,r2
    4b64:	003f9706 	br	49c4 <_dtoa_r+0xe94>
    4b68:	8009883a 	mov	r4,r16
    4b6c:	180b883a 	mov	r5,r3
    4b70:	000728c0 	call	728c <_Bfree>
    4b74:	00800044 	movi	r2,1
    4b78:	003f7306 	br	4948 <_dtoa_r+0xe18>
    4b7c:	e009883a 	mov	r4,fp
    4b80:	a80b883a 	mov	r5,r21
    4b84:	0007b740 	call	7b74 <__mcmp>
    4b88:	103ee60e 	bge	r2,zero,4724 <_dtoa_r+0xbf4>
    4b8c:	8009883a 	mov	r4,r16
    4b90:	e00b883a 	mov	r5,fp
    4b94:	01800284 	movi	r6,10
    4b98:	000f883a 	mov	r7,zero
    4b9c:	00072b40 	call	72b4 <__multadd>
    4ba0:	d9000517 	ldw	r4,20(sp)
    4ba4:	d9800b17 	ldw	r6,44(sp)
    4ba8:	1039883a 	mov	fp,r2
    4bac:	213fffc4 	addi	r4,r4,-1
    4bb0:	d9000515 	stw	r4,20(sp)
    4bb4:	303f2d1e 	bne	r6,zero,486c <_dtoa_r+0xd3c>
    4bb8:	d9000c17 	ldw	r4,48(sp)
    4bbc:	0101780e 	bge	zero,r4,51a0 <_dtoa_r+0x1670>
    4bc0:	d9000615 	stw	r4,24(sp)
    4bc4:	003edb06 	br	4734 <_dtoa_r+0xc04>
    4bc8:	00800084 	movi	r2,2
    4bcc:	30818e1e 	bne	r6,r2,5208 <_dtoa_r+0x16d8>
    4bd0:	d8000b15 	stw	zero,44(sp)
    4bd4:	003f8106 	br	49dc <_dtoa_r+0xeac>
    4bd8:	d8800717 	ldw	r2,28(sp)
    4bdc:	003c0306 	br	3bec <_dtoa_r+0xbc>
    4be0:	d9000317 	ldw	r4,12(sp)
    4be4:	00800084 	movi	r2,2
    4be8:	113ed00e 	bge	r2,r4,472c <_dtoa_r+0xbfc>
    4bec:	d8c00617 	ldw	r3,24(sp)
    4bf0:	183f901e 	bne	r3,zero,4a34 <_dtoa_r+0xf04>
    4bf4:	a80b883a 	mov	r5,r21
    4bf8:	8009883a 	mov	r4,r16
    4bfc:	01800144 	movi	r6,5
    4c00:	000f883a 	mov	r7,zero
    4c04:	00072b40 	call	72b4 <__multadd>
    4c08:	e009883a 	mov	r4,fp
    4c0c:	100b883a 	mov	r5,r2
    4c10:	102b883a 	mov	r21,r2
    4c14:	0007b740 	call	7b74 <__mcmp>
    4c18:	00bf860e 	bge	zero,r2,4a34 <_dtoa_r+0xf04>
    4c1c:	d9800717 	ldw	r6,28(sp)
    4c20:	00800c44 	movi	r2,49
    4c24:	30800005 	stb	r2,0(r6)
    4c28:	d8800517 	ldw	r2,20(sp)
    4c2c:	35c00044 	addi	r23,r6,1
    4c30:	10800044 	addi	r2,r2,1
    4c34:	d8800515 	stw	r2,20(sp)
    4c38:	003f8206 	br	4a44 <_dtoa_r+0xf14>
    4c3c:	903e981e 	bne	r18,zero,46a0 <_dtoa_r+0xb70>
    4c40:	003f8b06 	br	4a70 <_dtoa_r+0xf40>
    4c44:	d9800517 	ldw	r6,20(sp)
    4c48:	d8c00717 	ldw	r3,28(sp)
    4c4c:	00800c44 	movi	r2,49
    4c50:	31800044 	addi	r6,r6,1
    4c54:	d9800515 	stw	r6,20(sp)
    4c58:	18800005 	stb	r2,0(r3)
    4c5c:	003ee906 	br	4804 <_dtoa_r+0xcd4>
    4c60:	dc000317 	ldw	r16,12(sp)
    4c64:	003d6006 	br	41e8 <_dtoa_r+0x6b8>
    4c68:	8809883a 	mov	r4,r17
    4c6c:	000dbec0 	call	dbec <__floatsidf>
    4c70:	a009883a 	mov	r4,r20
    4c74:	a80b883a 	mov	r5,r21
    4c78:	100d883a 	mov	r6,r2
    4c7c:	180f883a 	mov	r7,r3
    4c80:	000ca280 	call	ca28 <__muldf3>
    4c84:	1009883a 	mov	r4,r2
    4c88:	180b883a 	mov	r5,r3
    4c8c:	000d883a 	mov	r6,zero
    4c90:	01d00734 	movhi	r7,16412
    4c94:	000b5c80 	call	b5c8 <__adddf3>
    4c98:	1023883a 	mov	r17,r2
    4c9c:	00bf3034 	movhi	r2,64704
    4ca0:	1885883a 	add	r2,r3,r2
    4ca4:	d8800e15 	stw	r2,56(sp)
    4ca8:	a009883a 	mov	r4,r20
    4cac:	a80b883a 	mov	r5,r21
    4cb0:	000d883a 	mov	r6,zero
    4cb4:	01d00534 	movhi	r7,16404
    4cb8:	000d2940 	call	d294 <__subdf3>
    4cbc:	d9c00e17 	ldw	r7,56(sp)
    4cc0:	1009883a 	mov	r4,r2
    4cc4:	180b883a 	mov	r5,r3
    4cc8:	880d883a 	mov	r6,r17
    4ccc:	102b883a 	mov	r21,r2
    4cd0:	1829883a 	mov	r20,r3
    4cd4:	000c8680 	call	c868 <__gedf2>
    4cd8:	00807716 	blt	zero,r2,4eb8 <_dtoa_r+0x1388>
    4cdc:	d8800e17 	ldw	r2,56(sp)
    4ce0:	a809883a 	mov	r4,r21
    4ce4:	a00b883a 	mov	r5,r20
    4ce8:	11e0003c 	xorhi	r7,r2,32768
    4cec:	880d883a 	mov	r6,r17
    4cf0:	000c9480 	call	c948 <__ledf2>
    4cf4:	103d6b0e 	bge	r2,zero,42a4 <_dtoa_r+0x774>
    4cf8:	002b883a 	mov	r21,zero
    4cfc:	0023883a 	mov	r17,zero
    4d00:	003f4c06 	br	4a34 <_dtoa_r+0xf04>
    4d04:	d9800917 	ldw	r6,36(sp)
    4d08:	e00b883a 	mov	r5,fp
    4d0c:	8009883a 	mov	r4,r16
    4d10:	00078e40 	call	78e4 <__pow5mult>
    4d14:	1039883a 	mov	fp,r2
    4d18:	003e2706 	br	45b8 <_dtoa_r+0xa88>
    4d1c:	d8000b15 	stw	zero,44(sp)
    4d20:	003c4906 	br	3e48 <_dtoa_r+0x318>
    4d24:	d9000917 	ldw	r4,36(sp)
    4d28:	d9800a17 	ldw	r6,40(sp)
    4d2c:	dd400915 	stw	r21,36(sp)
    4d30:	a905c83a 	sub	r2,r21,r4
    4d34:	308d883a 	add	r6,r6,r2
    4d38:	d9800a15 	stw	r6,40(sp)
    4d3c:	002b883a 	mov	r21,zero
    4d40:	003df206 	br	450c <_dtoa_r+0x9dc>
    4d44:	dc800e15 	stw	r18,56(sp)
    4d48:	982b883a 	mov	r21,r19
    4d4c:	04400084 	movi	r17,2
    4d50:	003c7406 	br	3f24 <_dtoa_r+0x3f4>
    4d54:	04400044 	movi	r17,1
    4d58:	dc400c15 	stw	r17,48(sp)
    4d5c:	dc400615 	stw	r17,24(sp)
    4d60:	dc402215 	stw	r17,136(sp)
    4d64:	80001115 	stw	zero,68(r16)
    4d68:	000b883a 	mov	r5,zero
    4d6c:	003c4a06 	br	3e98 <_dtoa_r+0x368>
    4d70:	3023883a 	mov	r17,r6
    4d74:	003ffb06 	br	4d64 <_dtoa_r+0x1234>
    4d78:	1000021e 	bne	r2,zero,4d84 <_dtoa_r+0x1254>
    4d7c:	4200004c 	andi	r8,r8,1
    4d80:	403e8f1e 	bne	r8,zero,47c0 <_dtoa_r+0xc90>
    4d84:	01000c04 	movi	r4,48
    4d88:	00000106 	br	4d90 <_dtoa_r+0x1260>
    4d8c:	102f883a 	mov	r23,r2
    4d90:	b8bfffc4 	addi	r2,r23,-1
    4d94:	10c00007 	ldb	r3,0(r2)
    4d98:	193ffc26 	beq	r3,r4,4d8c <_dtoa_r+0x125c>
    4d9c:	003e9906 	br	4804 <_dtoa_r+0xcd4>
    4da0:	d9000517 	ldw	r4,20(sp)
    4da4:	012fc83a 	sub	r23,zero,r4
    4da8:	b800ad26 	beq	r23,zero,5060 <_dtoa_r+0x1530>
    4dac:	b88003cc 	andi	r2,r23,15
    4db0:	100490fa 	slli	r2,r2,3
    4db4:	00c00074 	movhi	r3,1
    4db8:	18c8ff04 	addi	r3,r3,9212
    4dbc:	1885883a 	add	r2,r3,r2
    4dc0:	11800017 	ldw	r6,0(r2)
    4dc4:	11c00117 	ldw	r7,4(r2)
    4dc8:	b82fd13a 	srai	r23,r23,4
    4dcc:	9009883a 	mov	r4,r18
    4dd0:	980b883a 	mov	r5,r19
    4dd4:	000ca280 	call	ca28 <__muldf3>
    4dd8:	1029883a 	mov	r20,r2
    4ddc:	182b883a 	mov	r21,r3
    4de0:	b800f426 	beq	r23,zero,51b4 <_dtoa_r+0x1684>
    4de4:	02000074 	movhi	r8,1
    4de8:	4208f504 	addi	r8,r8,9172
    4dec:	8029883a 	mov	r20,r16
    4df0:	04400084 	movi	r17,2
    4df4:	4021883a 	mov	r16,r8
    4df8:	b980004c 	andi	r6,r23,1
    4dfc:	1009883a 	mov	r4,r2
    4e00:	b82fd07a 	srai	r23,r23,1
    4e04:	180b883a 	mov	r5,r3
    4e08:	30000426 	beq	r6,zero,4e1c <_dtoa_r+0x12ec>
    4e0c:	81800017 	ldw	r6,0(r16)
    4e10:	81c00117 	ldw	r7,4(r16)
    4e14:	8c400044 	addi	r17,r17,1
    4e18:	000ca280 	call	ca28 <__muldf3>
    4e1c:	84000204 	addi	r16,r16,8
    4e20:	b83ff51e 	bne	r23,zero,4df8 <_dtoa_r+0x12c8>
    4e24:	a021883a 	mov	r16,r20
    4e28:	182b883a 	mov	r21,r3
    4e2c:	1029883a 	mov	r20,r2
    4e30:	003c5506 	br	3f88 <_dtoa_r+0x458>
    4e34:	d9800517 	ldw	r6,20(sp)
    4e38:	d9000717 	ldw	r4,28(sp)
    4e3c:	00c00c04 	movi	r3,48
    4e40:	31800044 	addi	r6,r6,1
    4e44:	d9800515 	stw	r6,20(sp)
    4e48:	20c00005 	stb	r3,0(r4)
    4e4c:	02000c44 	movi	r8,49
    4e50:	003da206 	br	44dc <_dtoa_r+0x9ac>
    4e54:	89400117 	ldw	r5,4(r17)
    4e58:	8009883a 	mov	r4,r16
    4e5c:	00071e40 	call	71e4 <_Balloc>
    4e60:	89800417 	ldw	r6,16(r17)
    4e64:	11000304 	addi	r4,r2,12
    4e68:	89400304 	addi	r5,r17,12
    4e6c:	31800084 	addi	r6,r6,2
    4e70:	318d883a 	add	r6,r6,r6
    4e74:	318d883a 	add	r6,r6,r6
    4e78:	1027883a 	mov	r19,r2
    4e7c:	0006e2c0 	call	6e2c <memcpy>
    4e80:	8009883a 	mov	r4,r16
    4e84:	980b883a 	mov	r5,r19
    4e88:	01800044 	movi	r6,1
    4e8c:	0007a240 	call	7a24 <__lshift>
    4e90:	1029883a 	mov	r20,r2
    4e94:	003e8606 	br	48b0 <_dtoa_r+0xd80>
    4e98:	00800e44 	movi	r2,57
    4e9c:	90809526 	beq	r18,r2,50f4 <_dtoa_r+0x15c4>
    4ea0:	92000044 	addi	r8,r18,1
    4ea4:	003f2306 	br	4b34 <_dtoa_r+0x1004>
    4ea8:	9011883a 	mov	r8,r18
    4eac:	8825883a 	mov	r18,r17
    4eb0:	a023883a 	mov	r17,r20
    4eb4:	003e3706 	br	4794 <_dtoa_r+0xc64>
    4eb8:	002b883a 	mov	r21,zero
    4ebc:	0023883a 	mov	r17,zero
    4ec0:	003f5606 	br	4c1c <_dtoa_r+0x10ec>
    4ec4:	51bfffc4 	addi	r6,r10,-1
    4ec8:	300490fa 	slli	r2,r6,3
    4ecc:	00c00074 	movhi	r3,1
    4ed0:	18c8ff04 	addi	r3,r3,9212
    4ed4:	1885883a 	add	r2,r3,r2
    4ed8:	d9c00e17 	ldw	r7,56(sp)
    4edc:	11000017 	ldw	r4,0(r2)
    4ee0:	11400117 	ldw	r5,4(r2)
    4ee4:	d8800717 	ldw	r2,28(sp)
    4ee8:	d9801015 	stw	r6,64(sp)
    4eec:	880d883a 	mov	r6,r17
    4ef0:	da801615 	stw	r10,88(sp)
    4ef4:	15c00044 	addi	r23,r2,1
    4ef8:	000ca280 	call	ca28 <__muldf3>
    4efc:	a80b883a 	mov	r5,r21
    4f00:	a009883a 	mov	r4,r20
    4f04:	d8c01115 	stw	r3,68(sp)
    4f08:	d8800e15 	stw	r2,56(sp)
    4f0c:	000db640 	call	db64 <__fixdfsi>
    4f10:	1009883a 	mov	r4,r2
    4f14:	1023883a 	mov	r17,r2
    4f18:	000dbec0 	call	dbec <__floatsidf>
    4f1c:	a009883a 	mov	r4,r20
    4f20:	a80b883a 	mov	r5,r21
    4f24:	100d883a 	mov	r6,r2
    4f28:	180f883a 	mov	r7,r3
    4f2c:	000d2940 	call	d294 <__subdf3>
    4f30:	1813883a 	mov	r9,r3
    4f34:	d8c00717 	ldw	r3,28(sp)
    4f38:	8c400c04 	addi	r17,r17,48
    4f3c:	1011883a 	mov	r8,r2
    4f40:	1c400005 	stb	r17,0(r3)
    4f44:	da801617 	ldw	r10,88(sp)
    4f48:	00800044 	movi	r2,1
    4f4c:	50802326 	beq	r10,r2,4fdc <_dtoa_r+0x14ac>
    4f50:	d8800717 	ldw	r2,28(sp)
    4f54:	b82b883a 	mov	r21,r23
    4f58:	dc001315 	stw	r16,76(sp)
    4f5c:	12a9883a 	add	r20,r2,r10
    4f60:	4807883a 	mov	r3,r9
    4f64:	4005883a 	mov	r2,r8
    4f68:	dc801415 	stw	r18,80(sp)
    4f6c:	000d883a 	mov	r6,zero
    4f70:	01d00934 	movhi	r7,16420
    4f74:	1009883a 	mov	r4,r2
    4f78:	180b883a 	mov	r5,r3
    4f7c:	000ca280 	call	ca28 <__muldf3>
    4f80:	180b883a 	mov	r5,r3
    4f84:	1009883a 	mov	r4,r2
    4f88:	1821883a 	mov	r16,r3
    4f8c:	1025883a 	mov	r18,r2
    4f90:	000db640 	call	db64 <__fixdfsi>
    4f94:	1009883a 	mov	r4,r2
    4f98:	1023883a 	mov	r17,r2
    4f9c:	000dbec0 	call	dbec <__floatsidf>
    4fa0:	9009883a 	mov	r4,r18
    4fa4:	800b883a 	mov	r5,r16
    4fa8:	100d883a 	mov	r6,r2
    4fac:	180f883a 	mov	r7,r3
    4fb0:	8c400c04 	addi	r17,r17,48
    4fb4:	000d2940 	call	d294 <__subdf3>
    4fb8:	ad400044 	addi	r21,r21,1
    4fbc:	ac7fffc5 	stb	r17,-1(r21)
    4fc0:	ad3fea1e 	bne	r21,r20,4f6c <_dtoa_r+0x143c>
    4fc4:	1813883a 	mov	r9,r3
    4fc8:	d8c01017 	ldw	r3,64(sp)
    4fcc:	dc001317 	ldw	r16,76(sp)
    4fd0:	dc801417 	ldw	r18,80(sp)
    4fd4:	1011883a 	mov	r8,r2
    4fd8:	b8ef883a 	add	r23,r23,r3
    4fdc:	d9000e17 	ldw	r4,56(sp)
    4fe0:	d9401117 	ldw	r5,68(sp)
    4fe4:	000d883a 	mov	r6,zero
    4fe8:	01cff834 	movhi	r7,16352
    4fec:	da001715 	stw	r8,92(sp)
    4ff0:	da401515 	stw	r9,84(sp)
    4ff4:	000b5c80 	call	b5c8 <__adddf3>
    4ff8:	da001717 	ldw	r8,92(sp)
    4ffc:	da401517 	ldw	r9,84(sp)
    5000:	1009883a 	mov	r4,r2
    5004:	400d883a 	mov	r6,r8
    5008:	480f883a 	mov	r7,r9
    500c:	180b883a 	mov	r5,r3
    5010:	000c9480 	call	c948 <__ledf2>
    5014:	da001717 	ldw	r8,92(sp)
    5018:	da401517 	ldw	r9,84(sp)
    501c:	10003b0e 	bge	r2,zero,510c <_dtoa_r+0x15dc>
    5020:	d9001217 	ldw	r4,72(sp)
    5024:	bd7fffc3 	ldbu	r21,-1(r23)
    5028:	d9000515 	stw	r4,20(sp)
    502c:	003d1c06 	br	44a0 <_dtoa_r+0x970>
    5030:	d8c00817 	ldw	r3,32(sp)
    5034:	18a9c83a 	sub	r20,r3,r2
    5038:	0005883a 	mov	r2,zero
    503c:	003d3706 	br	451c <_dtoa_r+0x9ec>
    5040:	00800044 	movi	r2,1
    5044:	003dd006 	br	4788 <_dtoa_r+0xc58>
    5048:	d8c00217 	ldw	r3,8(sp)
    504c:	00800d84 	movi	r2,54
    5050:	dd400917 	ldw	r21,36(sp)
    5054:	10c5c83a 	sub	r2,r2,r3
    5058:	dd000817 	ldw	r20,32(sp)
    505c:	003d2f06 	br	451c <_dtoa_r+0x9ec>
    5060:	9029883a 	mov	r20,r18
    5064:	982b883a 	mov	r21,r19
    5068:	04400084 	movi	r17,2
    506c:	003bc606 	br	3f88 <_dtoa_r+0x458>
    5070:	d8800617 	ldw	r2,24(sp)
    5074:	103efc26 	beq	r2,zero,4c68 <_dtoa_r+0x1138>
    5078:	d8c00c17 	ldw	r3,48(sp)
    507c:	00fc890e 	bge	zero,r3,42a4 <_dtoa_r+0x774>
    5080:	a80b883a 	mov	r5,r21
    5084:	a009883a 	mov	r4,r20
    5088:	000d883a 	mov	r6,zero
    508c:	01d00934 	movhi	r7,16420
    5090:	000ca280 	call	ca28 <__muldf3>
    5094:	89000044 	addi	r4,r17,1
    5098:	1029883a 	mov	r20,r2
    509c:	182b883a 	mov	r21,r3
    50a0:	000dbec0 	call	dbec <__floatsidf>
    50a4:	a009883a 	mov	r4,r20
    50a8:	a80b883a 	mov	r5,r21
    50ac:	100d883a 	mov	r6,r2
    50b0:	180f883a 	mov	r7,r3
    50b4:	000ca280 	call	ca28 <__muldf3>
    50b8:	1009883a 	mov	r4,r2
    50bc:	180b883a 	mov	r5,r3
    50c0:	000d883a 	mov	r6,zero
    50c4:	01d00734 	movhi	r7,16412
    50c8:	000b5c80 	call	b5c8 <__adddf3>
    50cc:	d9000517 	ldw	r4,20(sp)
    50d0:	1023883a 	mov	r17,r2
    50d4:	00bf3034 	movhi	r2,64704
    50d8:	213fffc4 	addi	r4,r4,-1
    50dc:	1885883a 	add	r2,r3,r2
    50e0:	d9001215 	stw	r4,72(sp)
    50e4:	d8800e15 	stw	r2,56(sp)
    50e8:	da800c17 	ldw	r10,48(sp)
    50ec:	003bc306 	br	3ffc <_dtoa_r+0x4cc>
    50f0:	b039883a 	mov	fp,r22
    50f4:	01000e44 	movi	r4,57
    50f8:	8825883a 	mov	r18,r17
    50fc:	9dc00044 	addi	r23,r19,1
    5100:	99000005 	stb	r4,0(r19)
    5104:	a023883a 	mov	r17,r20
    5108:	003dae06 	br	47c4 <_dtoa_r+0xc94>
    510c:	d9800e17 	ldw	r6,56(sp)
    5110:	d9c01117 	ldw	r7,68(sp)
    5114:	0009883a 	mov	r4,zero
    5118:	014ff834 	movhi	r5,16352
    511c:	da001715 	stw	r8,92(sp)
    5120:	da401515 	stw	r9,84(sp)
    5124:	000d2940 	call	d294 <__subdf3>
    5128:	da001717 	ldw	r8,92(sp)
    512c:	da401517 	ldw	r9,84(sp)
    5130:	1009883a 	mov	r4,r2
    5134:	180b883a 	mov	r5,r3
    5138:	400d883a 	mov	r6,r8
    513c:	480f883a 	mov	r7,r9
    5140:	000c8680 	call	c868 <__gedf2>
    5144:	00bc570e 	bge	zero,r2,42a4 <_dtoa_r+0x774>
    5148:	01000c04 	movi	r4,48
    514c:	00000106 	br	5154 <_dtoa_r+0x1624>
    5150:	102f883a 	mov	r23,r2
    5154:	b8bfffc4 	addi	r2,r23,-1
    5158:	10c00007 	ldb	r3,0(r2)
    515c:	193ffc26 	beq	r3,r4,5150 <_dtoa_r+0x1620>
    5160:	d9801217 	ldw	r6,72(sp)
    5164:	d9800515 	stw	r6,20(sp)
    5168:	003c1f06 	br	41e8 <_dtoa_r+0x6b8>
    516c:	d8801217 	ldw	r2,72(sp)
    5170:	dc001117 	ldw	r16,68(sp)
    5174:	d8800515 	stw	r2,20(sp)
    5178:	003cc906 	br	44a0 <_dtoa_r+0x970>
    517c:	dd801317 	ldw	r22,76(sp)
    5180:	dc001117 	ldw	r16,68(sp)
    5184:	dcc01417 	ldw	r19,80(sp)
    5188:	dc801017 	ldw	r18,64(sp)
    518c:	003c4506 	br	42a4 <_dtoa_r+0x774>
    5190:	103e5d1e 	bne	r2,zero,4b08 <_dtoa_r+0xfd8>
    5194:	4080004c 	andi	r2,r8,1
    5198:	103e5b26 	beq	r2,zero,4b08 <_dtoa_r+0xfd8>
    519c:	003e5706 	br	4afc <_dtoa_r+0xfcc>
    51a0:	d8c00317 	ldw	r3,12(sp)
    51a4:	00800084 	movi	r2,2
    51a8:	10c00a16 	blt	r2,r3,51d4 <_dtoa_r+0x16a4>
    51ac:	d9000c17 	ldw	r4,48(sp)
    51b0:	003e8306 	br	4bc0 <_dtoa_r+0x1090>
    51b4:	04400084 	movi	r17,2
    51b8:	003b7306 	br	3f88 <_dtoa_r+0x458>
    51bc:	d9801217 	ldw	r6,72(sp)
    51c0:	d9800515 	stw	r6,20(sp)
    51c4:	003cb606 	br	44a0 <_dtoa_r+0x970>
    51c8:	d9001217 	ldw	r4,72(sp)
    51cc:	d9000515 	stw	r4,20(sp)
    51d0:	003c0506 	br	41e8 <_dtoa_r+0x6b8>
    51d4:	d9800c17 	ldw	r6,48(sp)
    51d8:	d9800615 	stw	r6,24(sp)
    51dc:	003e8306 	br	4bec <_dtoa_r+0x10bc>
    51e0:	d9800317 	ldw	r6,12(sp)
    51e4:	00800084 	movi	r2,2
    51e8:	11800216 	blt	r2,r6,51f4 <_dtoa_r+0x16c4>
    51ec:	d8800c17 	ldw	r2,48(sp)
    51f0:	003da606 	br	488c <_dtoa_r+0xd5c>
    51f4:	d8800c17 	ldw	r2,48(sp)
    51f8:	d8800615 	stw	r2,24(sp)
    51fc:	003e7b06 	br	4bec <_dtoa_r+0x10bc>
    5200:	05000044 	movi	r20,1
    5204:	003b0506 	br	3e1c <_dtoa_r+0x2ec>
    5208:	8009883a 	mov	r4,r16
    520c:	80001115 	stw	zero,68(r16)
    5210:	000b883a 	mov	r5,zero
    5214:	00071e40 	call	71e4 <_Balloc>
    5218:	d8800715 	stw	r2,28(sp)
    521c:	d8c00717 	ldw	r3,28(sp)
    5220:	00bfffc4 	movi	r2,-1
    5224:	01000044 	movi	r4,1
    5228:	d8800c15 	stw	r2,48(sp)
    522c:	80c01015 	stw	r3,64(r16)
    5230:	d9000b15 	stw	r4,44(sp)
    5234:	d8800615 	stw	r2,24(sp)
    5238:	d8002215 	stw	zero,136(sp)
    523c:	003c1906 	br	42a4 <_dtoa_r+0x774>
    5240:	193d2926 	beq	r3,r4,46e8 <_dtoa_r+0xbb8>
    5244:	00c00f04 	movi	r3,60
    5248:	1885c83a 	sub	r2,r3,r2
    524c:	003d7b06 	br	483c <_dtoa_r+0xd0c>
    5250:	000b883a 	mov	r5,zero
    5254:	003b1006 	br	3e98 <_dtoa_r+0x368>

00005258 <__sflush_r>:
    5258:	2880030b 	ldhu	r2,12(r5)
    525c:	defffb04 	addi	sp,sp,-20
    5260:	dcc00315 	stw	r19,12(sp)
    5264:	dc400115 	stw	r17,4(sp)
    5268:	dfc00415 	stw	ra,16(sp)
    526c:	dc800215 	stw	r18,8(sp)
    5270:	dc000015 	stw	r16,0(sp)
    5274:	10c0020c 	andi	r3,r2,8
    5278:	2823883a 	mov	r17,r5
    527c:	2027883a 	mov	r19,r4
    5280:	1800311e 	bne	r3,zero,5348 <__sflush_r+0xf0>
    5284:	28c00117 	ldw	r3,4(r5)
    5288:	10820014 	ori	r2,r2,2048
    528c:	2880030d 	sth	r2,12(r5)
    5290:	00c04b0e 	bge	zero,r3,53c0 <__sflush_r+0x168>
    5294:	8a000a17 	ldw	r8,40(r17)
    5298:	40002326 	beq	r8,zero,5328 <__sflush_r+0xd0>
    529c:	9c000017 	ldw	r16,0(r19)
    52a0:	10c4000c 	andi	r3,r2,4096
    52a4:	98000015 	stw	zero,0(r19)
    52a8:	18004826 	beq	r3,zero,53cc <__sflush_r+0x174>
    52ac:	89801417 	ldw	r6,80(r17)
    52b0:	10c0010c 	andi	r3,r2,4
    52b4:	18000626 	beq	r3,zero,52d0 <__sflush_r+0x78>
    52b8:	88c00117 	ldw	r3,4(r17)
    52bc:	88800c17 	ldw	r2,48(r17)
    52c0:	30cdc83a 	sub	r6,r6,r3
    52c4:	10000226 	beq	r2,zero,52d0 <__sflush_r+0x78>
    52c8:	88800f17 	ldw	r2,60(r17)
    52cc:	308dc83a 	sub	r6,r6,r2
    52d0:	89400717 	ldw	r5,28(r17)
    52d4:	9809883a 	mov	r4,r19
    52d8:	000f883a 	mov	r7,zero
    52dc:	403ee83a 	callr	r8
    52e0:	00ffffc4 	movi	r3,-1
    52e4:	10c04426 	beq	r2,r3,53f8 <__sflush_r+0x1a0>
    52e8:	88c0030b 	ldhu	r3,12(r17)
    52ec:	89000417 	ldw	r4,16(r17)
    52f0:	88000115 	stw	zero,4(r17)
    52f4:	197dffcc 	andi	r5,r3,63487
    52f8:	8940030d 	sth	r5,12(r17)
    52fc:	89000015 	stw	r4,0(r17)
    5300:	18c4000c 	andi	r3,r3,4096
    5304:	18002c1e 	bne	r3,zero,53b8 <__sflush_r+0x160>
    5308:	89400c17 	ldw	r5,48(r17)
    530c:	9c000015 	stw	r16,0(r19)
    5310:	28000526 	beq	r5,zero,5328 <__sflush_r+0xd0>
    5314:	88801004 	addi	r2,r17,64
    5318:	28800226 	beq	r5,r2,5324 <__sflush_r+0xcc>
    531c:	9809883a 	mov	r4,r19
    5320:	00059c00 	call	59c0 <_free_r>
    5324:	88000c15 	stw	zero,48(r17)
    5328:	0005883a 	mov	r2,zero
    532c:	dfc00417 	ldw	ra,16(sp)
    5330:	dcc00317 	ldw	r19,12(sp)
    5334:	dc800217 	ldw	r18,8(sp)
    5338:	dc400117 	ldw	r17,4(sp)
    533c:	dc000017 	ldw	r16,0(sp)
    5340:	dec00504 	addi	sp,sp,20
    5344:	f800283a 	ret
    5348:	2c800417 	ldw	r18,16(r5)
    534c:	903ff626 	beq	r18,zero,5328 <__sflush_r+0xd0>
    5350:	2c000017 	ldw	r16,0(r5)
    5354:	108000cc 	andi	r2,r2,3
    5358:	2c800015 	stw	r18,0(r5)
    535c:	84a1c83a 	sub	r16,r16,r18
    5360:	1000131e 	bne	r2,zero,53b0 <__sflush_r+0x158>
    5364:	28800517 	ldw	r2,20(r5)
    5368:	88800215 	stw	r2,8(r17)
    536c:	04000316 	blt	zero,r16,537c <__sflush_r+0x124>
    5370:	003fed06 	br	5328 <__sflush_r+0xd0>
    5374:	90a5883a 	add	r18,r18,r2
    5378:	043feb0e 	bge	zero,r16,5328 <__sflush_r+0xd0>
    537c:	88800917 	ldw	r2,36(r17)
    5380:	89400717 	ldw	r5,28(r17)
    5384:	800f883a 	mov	r7,r16
    5388:	900d883a 	mov	r6,r18
    538c:	9809883a 	mov	r4,r19
    5390:	103ee83a 	callr	r2
    5394:	80a1c83a 	sub	r16,r16,r2
    5398:	00bff616 	blt	zero,r2,5374 <__sflush_r+0x11c>
    539c:	88c0030b 	ldhu	r3,12(r17)
    53a0:	00bfffc4 	movi	r2,-1
    53a4:	18c01014 	ori	r3,r3,64
    53a8:	88c0030d 	sth	r3,12(r17)
    53ac:	003fdf06 	br	532c <__sflush_r+0xd4>
    53b0:	0005883a 	mov	r2,zero
    53b4:	003fec06 	br	5368 <__sflush_r+0x110>
    53b8:	88801415 	stw	r2,80(r17)
    53bc:	003fd206 	br	5308 <__sflush_r+0xb0>
    53c0:	28c00f17 	ldw	r3,60(r5)
    53c4:	00ffb316 	blt	zero,r3,5294 <__sflush_r+0x3c>
    53c8:	003fd706 	br	5328 <__sflush_r+0xd0>
    53cc:	89400717 	ldw	r5,28(r17)
    53d0:	000d883a 	mov	r6,zero
    53d4:	9809883a 	mov	r4,r19
    53d8:	01c00044 	movi	r7,1
    53dc:	403ee83a 	callr	r8
    53e0:	100d883a 	mov	r6,r2
    53e4:	00bfffc4 	movi	r2,-1
    53e8:	30801426 	beq	r6,r2,543c <__sflush_r+0x1e4>
    53ec:	8880030b 	ldhu	r2,12(r17)
    53f0:	8a000a17 	ldw	r8,40(r17)
    53f4:	003fae06 	br	52b0 <__sflush_r+0x58>
    53f8:	98c00017 	ldw	r3,0(r19)
    53fc:	183fba26 	beq	r3,zero,52e8 <__sflush_r+0x90>
    5400:	01000744 	movi	r4,29
    5404:	19000626 	beq	r3,r4,5420 <__sflush_r+0x1c8>
    5408:	01000584 	movi	r4,22
    540c:	19000426 	beq	r3,r4,5420 <__sflush_r+0x1c8>
    5410:	88c0030b 	ldhu	r3,12(r17)
    5414:	18c01014 	ori	r3,r3,64
    5418:	88c0030d 	sth	r3,12(r17)
    541c:	003fc306 	br	532c <__sflush_r+0xd4>
    5420:	8880030b 	ldhu	r2,12(r17)
    5424:	88c00417 	ldw	r3,16(r17)
    5428:	88000115 	stw	zero,4(r17)
    542c:	10bdffcc 	andi	r2,r2,63487
    5430:	8880030d 	sth	r2,12(r17)
    5434:	88c00015 	stw	r3,0(r17)
    5438:	003fb306 	br	5308 <__sflush_r+0xb0>
    543c:	98800017 	ldw	r2,0(r19)
    5440:	103fea26 	beq	r2,zero,53ec <__sflush_r+0x194>
    5444:	00c00744 	movi	r3,29
    5448:	10c00226 	beq	r2,r3,5454 <__sflush_r+0x1fc>
    544c:	00c00584 	movi	r3,22
    5450:	10ffd21e 	bne	r2,r3,539c <__sflush_r+0x144>
    5454:	9c000015 	stw	r16,0(r19)
    5458:	0005883a 	mov	r2,zero
    545c:	003fb306 	br	532c <__sflush_r+0xd4>

00005460 <_fflush_r>:
    5460:	defffd04 	addi	sp,sp,-12
    5464:	dc000115 	stw	r16,4(sp)
    5468:	dfc00215 	stw	ra,8(sp)
    546c:	2021883a 	mov	r16,r4
    5470:	20000226 	beq	r4,zero,547c <_fflush_r+0x1c>
    5474:	20800e17 	ldw	r2,56(r4)
    5478:	10000c26 	beq	r2,zero,54ac <_fflush_r+0x4c>
    547c:	2880030f 	ldh	r2,12(r5)
    5480:	1000051e 	bne	r2,zero,5498 <_fflush_r+0x38>
    5484:	0005883a 	mov	r2,zero
    5488:	dfc00217 	ldw	ra,8(sp)
    548c:	dc000117 	ldw	r16,4(sp)
    5490:	dec00304 	addi	sp,sp,12
    5494:	f800283a 	ret
    5498:	8009883a 	mov	r4,r16
    549c:	dfc00217 	ldw	ra,8(sp)
    54a0:	dc000117 	ldw	r16,4(sp)
    54a4:	dec00304 	addi	sp,sp,12
    54a8:	00052581 	jmpi	5258 <__sflush_r>
    54ac:	d9400015 	stw	r5,0(sp)
    54b0:	000584c0 	call	584c <__sinit>
    54b4:	d9400017 	ldw	r5,0(sp)
    54b8:	003ff006 	br	547c <_fflush_r+0x1c>

000054bc <fflush>:
    54bc:	20000526 	beq	r4,zero,54d4 <fflush+0x18>
    54c0:	00800074 	movhi	r2,1
    54c4:	10913d04 	addi	r2,r2,17652
    54c8:	200b883a 	mov	r5,r4
    54cc:	11000017 	ldw	r4,0(r2)
    54d0:	00054601 	jmpi	5460 <_fflush_r>
    54d4:	00800074 	movhi	r2,1
    54d8:	10913c04 	addi	r2,r2,17648
    54dc:	11000017 	ldw	r4,0(r2)
    54e0:	01400034 	movhi	r5,0
    54e4:	29551804 	addi	r5,r5,21600
    54e8:	00062401 	jmpi	6240 <_fwalk_reent>

000054ec <__fp_lock>:
    54ec:	0005883a 	mov	r2,zero
    54f0:	f800283a 	ret

000054f4 <__fp_unlock>:
    54f4:	0005883a 	mov	r2,zero
    54f8:	f800283a 	ret

000054fc <_cleanup_r>:
    54fc:	01400074 	movhi	r5,1
    5500:	29682f04 	addi	r5,r5,-24388
    5504:	00062401 	jmpi	6240 <_fwalk_reent>

00005508 <__sinit.part.1>:
    5508:	defff704 	addi	sp,sp,-36
    550c:	00c00034 	movhi	r3,0
    5510:	dfc00815 	stw	ra,32(sp)
    5514:	ddc00715 	stw	r23,28(sp)
    5518:	dd800615 	stw	r22,24(sp)
    551c:	dd400515 	stw	r21,20(sp)
    5520:	dd000415 	stw	r20,16(sp)
    5524:	dcc00315 	stw	r19,12(sp)
    5528:	dc800215 	stw	r18,8(sp)
    552c:	dc400115 	stw	r17,4(sp)
    5530:	dc000015 	stw	r16,0(sp)
    5534:	18d53f04 	addi	r3,r3,21756
    5538:	24000117 	ldw	r16,4(r4)
    553c:	20c00f15 	stw	r3,60(r4)
    5540:	2080bb04 	addi	r2,r4,748
    5544:	00c000c4 	movi	r3,3
    5548:	20c0b915 	stw	r3,740(r4)
    554c:	2080ba15 	stw	r2,744(r4)
    5550:	2000b815 	stw	zero,736(r4)
    5554:	05c00204 	movi	r23,8
    5558:	00800104 	movi	r2,4
    555c:	2025883a 	mov	r18,r4
    5560:	b80d883a 	mov	r6,r23
    5564:	81001704 	addi	r4,r16,92
    5568:	000b883a 	mov	r5,zero
    556c:	80000015 	stw	zero,0(r16)
    5570:	80000115 	stw	zero,4(r16)
    5574:	80000215 	stw	zero,8(r16)
    5578:	8080030d 	sth	r2,12(r16)
    557c:	80001915 	stw	zero,100(r16)
    5580:	8000038d 	sth	zero,14(r16)
    5584:	80000415 	stw	zero,16(r16)
    5588:	80000515 	stw	zero,20(r16)
    558c:	80000615 	stw	zero,24(r16)
    5590:	00070c00 	call	70c0 <memset>
    5594:	05800074 	movhi	r22,1
    5598:	94400217 	ldw	r17,8(r18)
    559c:	05400074 	movhi	r21,1
    55a0:	05000074 	movhi	r20,1
    55a4:	04c00074 	movhi	r19,1
    55a8:	b5a21c04 	addi	r22,r22,-30608
    55ac:	ad623304 	addi	r21,r21,-30516
    55b0:	a5225204 	addi	r20,r20,-30392
    55b4:	9ce26904 	addi	r19,r19,-30300
    55b8:	85800815 	stw	r22,32(r16)
    55bc:	85400915 	stw	r21,36(r16)
    55c0:	85000a15 	stw	r20,40(r16)
    55c4:	84c00b15 	stw	r19,44(r16)
    55c8:	84000715 	stw	r16,28(r16)
    55cc:	00800284 	movi	r2,10
    55d0:	8880030d 	sth	r2,12(r17)
    55d4:	00800044 	movi	r2,1
    55d8:	89001704 	addi	r4,r17,92
    55dc:	b80d883a 	mov	r6,r23
    55e0:	000b883a 	mov	r5,zero
    55e4:	88000015 	stw	zero,0(r17)
    55e8:	88000115 	stw	zero,4(r17)
    55ec:	88000215 	stw	zero,8(r17)
    55f0:	88001915 	stw	zero,100(r17)
    55f4:	8880038d 	sth	r2,14(r17)
    55f8:	88000415 	stw	zero,16(r17)
    55fc:	88000515 	stw	zero,20(r17)
    5600:	88000615 	stw	zero,24(r17)
    5604:	00070c00 	call	70c0 <memset>
    5608:	94000317 	ldw	r16,12(r18)
    560c:	00800484 	movi	r2,18
    5610:	8c400715 	stw	r17,28(r17)
    5614:	8d800815 	stw	r22,32(r17)
    5618:	8d400915 	stw	r21,36(r17)
    561c:	8d000a15 	stw	r20,40(r17)
    5620:	8cc00b15 	stw	r19,44(r17)
    5624:	8080030d 	sth	r2,12(r16)
    5628:	00800084 	movi	r2,2
    562c:	80000015 	stw	zero,0(r16)
    5630:	80000115 	stw	zero,4(r16)
    5634:	80000215 	stw	zero,8(r16)
    5638:	80001915 	stw	zero,100(r16)
    563c:	8080038d 	sth	r2,14(r16)
    5640:	80000415 	stw	zero,16(r16)
    5644:	80000515 	stw	zero,20(r16)
    5648:	80000615 	stw	zero,24(r16)
    564c:	81001704 	addi	r4,r16,92
    5650:	000b883a 	mov	r5,zero
    5654:	b80d883a 	mov	r6,r23
    5658:	00070c00 	call	70c0 <memset>
    565c:	00800044 	movi	r2,1
    5660:	84000715 	stw	r16,28(r16)
